   1              		.syntax unified
   2              		.cpu cortex-m4
   3              		.eabi_attribute 27, 3
   4              		.fpu fpv4-sp-d16
   5              		.eabi_attribute 20, 1
   6              		.eabi_attribute 21, 1
   7              		.eabi_attribute 23, 3
   8              		.eabi_attribute 24, 1
   9              		.eabi_attribute 25, 1
  10              		.eabi_attribute 26, 1
  11              		.eabi_attribute 30, 6
  12              		.eabi_attribute 34, 1
  13              		.eabi_attribute 18, 4
  14              		.thumb
  15              		.file	"Main.c"
  16              		.text
  17              	.Ltext0:
  18              		.cfi_sections	.debug_frame
  19              		.comm	threadA_id,4,4
  20              		.global	os_thread_def_threadA
  21              		.section	.rodata
  22              		.align	2
  25              	os_thread_def_threadA:
  26 0000 00000000 		.word	threadA
  27 0004 0000     		.short	0
  28 0006 0000     		.space	2
  29 0008 01000000 		.word	1
  30 000c 00000000 		.word	0
  31              		.comm	threadB_id,4,4
  32              		.global	os_thread_def_threadB
  33              		.align	2
  36              	os_thread_def_threadB:
  37 0010 00000000 		.word	threadB
  38 0014 0000     		.short	0
  39 0016 0000     		.space	2
  40 0018 01000000 		.word	1
  41 001c 00000000 		.word	0
  42              		.global	Data
  43              		.data
  44              		.align	2
  47              	Data:
  48 0000 48       		.byte	72
  49 0001 45       		.byte	69
  50 0002 4C       		.byte	76
  51 0003 4C       		.byte	76
  52 0004 4F       		.byte	79
  53 0005 20       		.byte	32
  54 0006 57       		.byte	87
  55 0007 4F       		.byte	79
  56 0008 52       		.byte	82
  57 0009 4C       		.byte	76
  58 000a 44       		.byte	68
  59 000b 0A       		.byte	10
  60 000c 0D       		.byte	13
  61              		.global	Data1
  62 000d 000000   		.align	2
  65              	Data1:
  66 0010 68       		.byte	104
  67 0011 65       		.byte	101
  68 0012 6C       		.byte	108
  69 0013 6C       		.byte	108
  70 0014 6F       		.byte	111
  71 0015 20       		.byte	32
  72 0016 77       		.byte	119
  73 0017 6F       		.byte	111
  74 0018 72       		.byte	114
  75 0019 6C       		.byte	108
  76 001a 64       		.byte	100
  77 001b 0A       		.byte	10
  78 001c 0D       		.byte	13
  79 001d 000000   		.section	.text.threadA,"ax",%progbits
  80              		.align	2
  81              		.global	threadA
  82              		.thumb
  83              		.thumb_func
  85              	threadA:
  86              	.LFB113:
  87              		.file 1 "../Main.c"
   1:../Main.c     **** /*
   2:../Main.c     ****  * Main.c
   3:../Main.c     ****  *
   4:../Main.c     ****  *
   5:../Main.c     ****  *  Created on: 2014-8-20
   6:../Main.c     ****  *      Author: liudanghao
   7:../Main.c     ****  */
   8:../Main.c     **** 
   9:../Main.c     **** #include <DAVE3.h>			//Declarations from DAVE3 Code Generation (includes SFR declaration)
  10:../Main.c     **** 
  11:../Main.c     **** 
  12:../Main.c     **** //threadA define
  13:../Main.c     **** void threadA (void const *argument);
  14:../Main.c     **** osThreadId threadA_id;
  15:../Main.c     **** osThreadDef(threadA, osPriorityNormal, 1, 0);
  16:../Main.c     **** 
  17:../Main.c     **** //threadB define
  18:../Main.c     **** void threadB (void const *argument);
  19:../Main.c     **** osThreadId threadB_id;
  20:../Main.c     **** osThreadDef(threadB, osPriorityNormal, 1, 0);
  21:../Main.c     **** 
  22:../Main.c     **** //LED define
  23:../Main.c     **** #define LED0 IO004_Handle0
  24:../Main.c     **** #define LED1 IO004_Handle1
  25:../Main.c     **** 
  26:../Main.c     **** uint8_t Data[13] = {'H','E','L','L','O',' ','W','O','R','L','D','\n','\r'};
  27:../Main.c     **** uint8_t Data1[13] = {'h','e','l','l','o',' ','w','o','r','l','d','\n','\r'};
  28:../Main.c     **** 
  29:../Main.c     **** 
  30:../Main.c     **** 
  31:../Main.c     **** void threadA(void const *argument)
  32:../Main.c     **** {
  88              		.loc 1 32 0
  89              		.cfi_startproc
  90              		@ args = 0, pretend = 0, frame = 40
  91              		@ frame_needed = 1, uses_anonymous_args = 0
  92 0000 80B5     		push	{r7, lr}
  93              	.LCFI0:
  94              		.cfi_def_cfa_offset 8
  95              		.cfi_offset 7, -8
  96              		.cfi_offset 14, -4
  97 0002 8AB0     		sub	sp, sp, #40
  98              	.LCFI1:
  99              		.cfi_def_cfa_offset 48
 100 0004 00AF     		add	r7, sp, #0
 101              	.LCFI2:
 102              		.cfi_def_cfa_register 7
 103 0006 7860     		str	r0, [r7, #4]
  33:../Main.c     **** 
  34:../Main.c     **** 	status_t Status = UART002_FAIL;
 104              		.loc 1 34 0
 105 0008 4FF00903 		mov	r3, #9
 106 000c 7B62     		str	r3, [r7, #36]
  35:../Main.c     **** 	UART002_LocalStructType TxChn1;
  36:../Main.c     **** 	UART002_LocalStructureInit(&UART002_Handle0,&TxChn1,0x0001);
 107              		.loc 1 36 0
 108 000e 07F10C03 		add	r3, r7, #12
 109 0012 40F20000 		movw	r0, #:lower16:UART002_Handle0
 110 0016 C0F20000 		movt	r0, #:upper16:UART002_Handle0
 111 001a 1946     		mov	r1, r3
 112 001c 4FF00102 		mov	r2, #1
 113 0020 FFF7FEFF 		bl	UART002_LocalStructureInit
  37:../Main.c     **** 	TxChn1.DataLen = 13;
 114              		.loc 1 37 0
 115 0024 4FF00D03 		mov	r3, #13
 116 0028 3B82     		strh	r3, [r7, #16]	@ movhi
  38:../Main.c     **** 	TxChn1.pBuffer = &Data1[0];
 117              		.loc 1 38 0
 118 002a 40F20003 		movw	r3, #:lower16:Data1
 119 002e C0F20003 		movt	r3, #:upper16:Data1
 120 0032 7B61     		str	r3, [r7, #20]
 121 0034 00E0     		b	.L4
 122              	.L5:
  39:../Main.c     **** 
  40:../Main.c     ****     while(1)
  41:../Main.c     ****     {
  42:../Main.c     **** 
  43:../Main.c     ****     	osDelay(500);
  44:../Main.c     **** 		IO004_TogglePin(LED0);
  45:../Main.c     **** 
  46:../Main.c     **** 
  47:../Main.c     **** 		Status = UART002_StartTransmission(&TxChn1,10000);
  48:../Main.c     **** 		if(Status == UART002_TIMEOUT)
  49:../Main.c     **** 		{
  50:../Main.c     **** 			Status = UART002_FAIL;
  51:../Main.c     **** 		}
  52:../Main.c     **** 		else
  53:../Main.c     **** 		{
  54:../Main.c     **** 			Status = UART002_WaitForCompletion(&TxChn1,10000);
  55:../Main.c     **** 			if(Status != UART002_TIMEOUT)
  56:../Main.c     **** 			{
  57:../Main.c     **** 
  58:../Main.c     **** 				Status = UART002_GetStatus(&TxChn1);
  59:../Main.c     **** 				if(Status != UART002_TRANSFER_SUCCESS)
  60:../Main.c     **** 				{
  61:../Main.c     **** 						Status = UART002_FAIL;
  62:../Main.c     **** 				}
  63:../Main.c     **** 			}
  64:../Main.c     **** 		}
  65:../Main.c     **** 
  66:../Main.c     ****     }
 123              		.loc 1 66 0
 124 0036 00BF     		nop
 125              	.L4:
  43:../Main.c     ****     	osDelay(500);
 126              		.loc 1 43 0
 127 0038 4FF4FA70 		mov	r0, #500
 128 003c FFF7FEFF 		bl	osDelay
  44:../Main.c     **** 		IO004_TogglePin(LED0);
 129              		.loc 1 44 0
 130 0040 40F20003 		movw	r3, #:lower16:IO004_Handle0
 131 0044 C0F20003 		movt	r3, #:upper16:IO004_Handle0
 132 0048 5A68     		ldr	r2, [r3, #4]
 133 004a 40F20003 		movw	r3, #:lower16:IO004_Handle0
 134 004e C0F20003 		movt	r3, #:upper16:IO004_Handle0
 135 0052 5B78     		ldrb	r3, [r3, #1]	@ zero_extendqisi2
 136 0054 4FF00111 		mov	r1, #65537
 137 0058 01FA03F3 		lsl	r3, r1, r3
 138 005c 5360     		str	r3, [r2, #4]
  47:../Main.c     **** 		Status = UART002_StartTransmission(&TxChn1,10000);
 139              		.loc 1 47 0
 140 005e 07F10C03 		add	r3, r7, #12
 141 0062 1846     		mov	r0, r3
 142 0064 42F21071 		movw	r1, #10000
 143 0068 FFF7FEFF 		bl	UART002_StartTransmission
 144 006c 7862     		str	r0, [r7, #36]
  48:../Main.c     **** 		if(Status == UART002_TIMEOUT)
 145              		.loc 1 48 0
 146 006e 7B6A     		ldr	r3, [r7, #36]
 147 0070 062B     		cmp	r3, #6
 148 0072 03D1     		bne	.L2
  50:../Main.c     **** 			Status = UART002_FAIL;
 149              		.loc 1 50 0
 150 0074 4FF00903 		mov	r3, #9
 151 0078 7B62     		str	r3, [r7, #36]
 152              		.loc 1 66 0
 153 007a DCE7     		b	.L5
 154              	.L2:
  54:../Main.c     **** 			Status = UART002_WaitForCompletion(&TxChn1,10000);
 155              		.loc 1 54 0
 156 007c 07F10C03 		add	r3, r7, #12
 157 0080 1846     		mov	r0, r3
 158 0082 42F21071 		movw	r1, #10000
 159 0086 FFF7FEFF 		bl	UART002_WaitForCompletion
 160 008a 7862     		str	r0, [r7, #36]
  55:../Main.c     **** 			if(Status != UART002_TIMEOUT)
 161              		.loc 1 55 0
 162 008c 7B6A     		ldr	r3, [r7, #36]
 163 008e 062B     		cmp	r3, #6
 164 0090 D1D0     		beq	.L5
  58:../Main.c     **** 				Status = UART002_GetStatus(&TxChn1);
 165              		.loc 1 58 0
 166 0092 07F10C03 		add	r3, r7, #12
 167 0096 1846     		mov	r0, r3
 168 0098 FFF7FEFF 		bl	UART002_GetStatus
 169 009c 7862     		str	r0, [r7, #36]
  59:../Main.c     **** 				if(Status != UART002_TRANSFER_SUCCESS)
 170              		.loc 1 59 0
 171 009e 7B6A     		ldr	r3, [r7, #36]
 172 00a0 032B     		cmp	r3, #3
 173 00a2 C8D0     		beq	.L5
  61:../Main.c     **** 						Status = UART002_FAIL;
 174              		.loc 1 61 0
 175 00a4 4FF00903 		mov	r3, #9
 176 00a8 7B62     		str	r3, [r7, #36]
 177              		.loc 1 66 0
 178 00aa C4E7     		b	.L5
 179              		.cfi_endproc
 180              	.LFE113:
 182              		.section	.text.threadB,"ax",%progbits
 183              		.align	2
 184              		.global	threadB
 185              		.thumb
 186              		.thumb_func
 188              	threadB:
 189              	.LFB114:
  67:../Main.c     **** }
  68:../Main.c     **** 
  69:../Main.c     **** 
  70:../Main.c     **** void threadB(void const *argument)
  71:../Main.c     **** {
 190              		.loc 1 71 0
 191              		.cfi_startproc
 192              		@ args = 0, pretend = 0, frame = 8
 193              		@ frame_needed = 1, uses_anonymous_args = 0
 194 0000 80B5     		push	{r7, lr}
 195              	.LCFI3:
 196              		.cfi_def_cfa_offset 8
 197              		.cfi_offset 7, -8
 198              		.cfi_offset 14, -4
 199 0002 82B0     		sub	sp, sp, #8
 200              	.LCFI4:
 201              		.cfi_def_cfa_offset 16
 202 0004 00AF     		add	r7, sp, #0
 203              	.LCFI5:
 204              		.cfi_def_cfa_register 7
 205 0006 7860     		str	r0, [r7, #4]
 206              	.L7:
  72:../Main.c     **** 
  73:../Main.c     **** 
  74:../Main.c     **** /*
  75:../Main.c     ****     status_t Status = UART002_FAIL;
  76:../Main.c     ****     UART002_LocalStructType TxChn;
  77:../Main.c     ****     UART002_LocalStructureInit(&UART002_Handle0,&TxChn,0x0001);
  78:../Main.c     ****     TxChn.DataLen = 13;
  79:../Main.c     ****     TxChn.pBuffer = &Data[0];
  80:../Main.c     **** */
  81:../Main.c     ****     while(1)
  82:../Main.c     ****      {
  83:../Main.c     ****         IO004_TogglePin(LED1);
 207              		.loc 1 83 0 discriminator 1
 208 0008 40F20003 		movw	r3, #:lower16:IO004_Handle1
 209 000c C0F20003 		movt	r3, #:upper16:IO004_Handle1
 210 0010 5A68     		ldr	r2, [r3, #4]
 211 0012 40F20003 		movw	r3, #:lower16:IO004_Handle1
 212 0016 C0F20003 		movt	r3, #:upper16:IO004_Handle1
 213 001a 5B78     		ldrb	r3, [r3, #1]	@ zero_extendqisi2
 214 001c 4FF00111 		mov	r1, #65537
 215 0020 01FA03F3 		lsl	r3, r1, r3
 216 0024 5360     		str	r3, [r2, #4]
  84:../Main.c     ****         osDelay(1000);
 217              		.loc 1 84 0 discriminator 1
 218 0026 4FF47A70 		mov	r0, #1000
 219 002a FFF7FEFF 		bl	osDelay
  85:../Main.c     **** /*
  86:../Main.c     ****     	Status = UART002_StartTransmission(&TxChn,10000);
  87:../Main.c     ****     	if(Status == UART002_TIMEOUT)
  88:../Main.c     ****     	{
  89:../Main.c     ****     		Status = UART002_FAIL;
  90:../Main.c     ****     	}
  91:../Main.c     ****     	else
  92:../Main.c     ****     	{
  93:../Main.c     ****     		Status = UART002_WaitForCompletion(&TxChn,10000);
  94:../Main.c     ****     		if(Status != UART002_TIMEOUT)
  95:../Main.c     ****     		{
  96:../Main.c     **** 
  97:../Main.c     ****     			Status = UART002_GetStatus(&TxChn);
  98:../Main.c     ****     			if(Status != UART002_TRANSFER_SUCCESS)
  99:../Main.c     ****     			{
 100:../Main.c     ****     					Status = UART002_FAIL;
 101:../Main.c     ****     			}
 102:../Main.c     ****     		}
 103:../Main.c     ****     	}
 104:../Main.c     ****  */
 105:../Main.c     ****      }
 220              		.loc 1 105 0 discriminator 1
 221 002e EBE7     		b	.L7
 222              		.cfi_endproc
 223              	.LFE114:
 225              		.section	.text.main,"ax",%progbits
 226              		.align	2
 227              		.global	main
 228              		.thumb
 229              		.thumb_func
 231              	main:
 232              	.LFB115:
 106:../Main.c     **** 
 107:../Main.c     **** }
 108:../Main.c     **** 
 109:../Main.c     **** 
 110:../Main.c     **** 
 111:../Main.c     **** int main(void)
 112:../Main.c     **** {
 233              		.loc 1 112 0
 234              		.cfi_startproc
 235              		@ args = 0, pretend = 0, frame = 0
 236              		@ frame_needed = 1, uses_anonymous_args = 0
 237 0000 80B5     		push	{r7, lr}
 238              	.LCFI6:
 239              		.cfi_def_cfa_offset 8
 240              		.cfi_offset 7, -8
 241              		.cfi_offset 14, -4
 242 0002 00AF     		add	r7, sp, #0
 243              	.LCFI7:
 244              		.cfi_def_cfa_register 7
 113:../Main.c     **** //	status_t status;		// Declaration of return variable for DAVE3 APIs (toggle comment if required)
 114:../Main.c     **** 
 115:../Main.c     **** 
 116:../Main.c     **** 	DAVE_Init();			// Initialization of DAVE Apps
 245              		.loc 1 116 0
 246 0004 FFF7FEFF 		bl	DAVE_Init
 117:../Main.c     **** 
 118:../Main.c     **** 	threadA_id = osThreadCreate(osThread(threadA), NULL);
 247              		.loc 1 118 0
 248 0008 40F20000 		movw	r0, #:lower16:os_thread_def_threadA
 249 000c C0F20000 		movt	r0, #:upper16:os_thread_def_threadA
 250 0010 4FF00001 		mov	r1, #0
 251 0014 FFF7FEFF 		bl	osThreadCreate
 252 0018 0246     		mov	r2, r0
 253 001a 40F20003 		movw	r3, #:lower16:threadA_id
 254 001e C0F20003 		movt	r3, #:upper16:threadA_id
 255 0022 1A60     		str	r2, [r3, #0]
 119:../Main.c     **** 	threadB_id = osThreadCreate(osThread(threadB), NULL);
 256              		.loc 1 119 0
 257 0024 40F20000 		movw	r0, #:lower16:os_thread_def_threadB
 258 0028 C0F20000 		movt	r0, #:upper16:os_thread_def_threadB
 259 002c 4FF00001 		mov	r1, #0
 260 0030 FFF7FEFF 		bl	osThreadCreate
 261 0034 0246     		mov	r2, r0
 262 0036 40F20003 		movw	r3, #:lower16:threadB_id
 263 003a C0F20003 		movt	r3, #:upper16:threadB_id
 264 003e 1A60     		str	r2, [r3, #0]
 120:../Main.c     **** 
 121:../Main.c     **** 	osKernelStart();
 265              		.loc 1 121 0
 266 0040 FFF7FEFF 		bl	osKernelStart
 267              	.L9:
 122:../Main.c     **** 
 123:../Main.c     **** 	//if something error!!!
 124:../Main.c     **** 	while(1)
 125:../Main.c     **** 	{
 126:../Main.c     **** 		osDelay(400);
 268              		.loc 1 126 0 discriminator 1
 269 0044 4FF4C870 		mov	r0, #400
 270 0048 FFF7FEFF 		bl	osDelay
 127:../Main.c     **** 	}
 271              		.loc 1 127 0 discriminator 1
 272 004c FAE7     		b	.L9
 273              		.cfi_endproc
 274              	.LFE115:
 276 004e 00BF     		.text
 277              	.Letext0:
 278              		.file 2 "c:\\dave-3.1.10\\arm-gcc\\bin\\../lib/gcc/arm-none-eabi/4.7.4/../../../../arm-none-eabi/i
 279              		.file 3 "C:\\DAVE-3.1.10\\eclipse\\/../CMSIS/Infineon/XMC4500_series/Include/XMC4500.h"
 280              		.file 4 "X:\\DAVE3-examples\\DAVE4500\\Dave\\Generated\\inc\\DAVESupport/../../inc/LIBS/types.h"
 281              		.file 5 "X:\\DAVE3-examples\\DAVE4500\\Dave\\Generated\\inc\\DAVESupport/../../inc/IO004/IO004.h"
 282              		.file 6 "X:\\DAVE3-examples\\DAVE4500\\Dave\\Generated\\inc\\DAVESupport/../../inc/RTOS001/../../s
 283              		.file 7 "X:\\DAVE3-examples\\DAVE4500\\Dave\\Generated\\inc\\DAVESupport/../../inc/UART002/../../i
 284              		.file 8 "X:\\DAVE3-examples\\DAVE4500\\Dave\\Generated\\inc\\DAVESupport/../../inc/UART002/UART002
 285              		.file 9 "C:\\DAVE-3.1.10\\eclipse\\/../CMSIS/Include/core_cm4.h"
 286              		.file 10 "X:\\DAVE3-examples\\DAVE4500\\Dave\\Generated\\inc\\DAVESupport/../../inc/IO004/IO004_Co
 287              		.file 11 "X:\\DAVE3-examples\\DAVE4500\\Dave\\Generated\\inc\\DAVESupport/../../inc/UART002/UART00