   1              		.syntax unified
   2              		.cpu cortex-m4
   3              		.eabi_attribute 27, 3
   4              		.fpu fpv4-sp-d16
   5              		.eabi_attribute 20, 1
   6              		.eabi_attribute 21, 1
   7              		.eabi_attribute 23, 3
   8              		.eabi_attribute 24, 1
   9              		.eabi_attribute 25, 1
  10              		.eabi_attribute 26, 1
  11              		.eabi_attribute 30, 4
  12              		.eabi_attribute 34, 1
  13              		.eabi_attribute 18, 4
  14              		.thumb
  15              		.file	"CLK001.c"
  16              		.section	.text.CLK001_Delay,"ax",%progbits
  17              		.align	1
  18              		.thumb
  19              		.thumb_func
  21              	CLK001_Delay:
  22              		@ args = 0, pretend = 0, frame = 8
  23              		@ frame_needed = 0, uses_anonymous_args = 0
  24              		@ link register save eliminated.
  25 0000 82B0     		sub	sp, sp, #8
  26 0002 0022     		movs	r2, #0
  27              	.L4:
  28 0004 0192     		str	r2, [sp, #4]
  29 0006 019B     		ldr	r3, [sp, #4]
  30 0008 8342     		cmp	r3, r0
  31 000a 06D2     		bcs	.L6
  32              	.L3:
  33              	@ 327 "C:\DAVE-3.1.10\eclipse\/../CMSIS/Include/core_cmInstr.h" 1
  34 000c 00BF     		nop
  35              	@ 0 "" 2
  36              	@ 327 "C:\DAVE-3.1.10\eclipse\/../CMSIS/Include/core_cmInstr.h" 1
  37 000e 00BF     		nop
  38              	@ 0 "" 2
  39              	@ 327 "C:\DAVE-3.1.10\eclipse\/../CMSIS/Include/core_cmInstr.h" 1
  40 0010 00BF     		nop
  41              	@ 0 "" 2
  42              	@ 327 "C:\DAVE-3.1.10\eclipse\/../CMSIS/Include/core_cmInstr.h" 1
  43 0012 00BF     		nop
  44              	@ 0 "" 2
  45              		.thumb
  46 0014 0199     		ldr	r1, [sp, #4]
  47 0016 4A1C     		adds	r2, r1, #1
  48 0018 F4E7     		b	.L4
  49              	.L6:
  50 001a 02B0     		add	sp, sp, #8
  51 001c 7047     		bx	lr
  53              		.section	.text.CLK001_Init,"ax",%progbits
  54              		.align	1
  55              		.global	CLK001_Init
  56              		.thumb
  57              		.thumb_func
  59              	CLK001_Init:
  60              		@ args = 0, pretend = 0, frame = 0
  61              		@ frame_needed = 0, uses_anonymous_args = 0
  62 0000 38B5     		push	{r3, r4, r5, lr}
  63 0002 5C4B     		ldr	r3, .L39
  64 0004 5C48     		ldr	r0, .L39+4
  65 0006 5A68     		ldr	r2, [r3, #4]
  66 0008 1040     		ands	r0, r0, r2
  67 000a 0028     		cmp	r0, #0
  68 000c 00F09E80 		beq	.L9
  69              	.L8:
  70 0010 5A49     		ldr	r1, .L39+8
  71 0012 0C68     		ldr	r4, [r1, #0]
  72 0014 E207     		lsls	r2, r4, #31
  73 0016 03D4     		bmi	.L21
  74              	.L20:
  75 0018 4D68     		ldr	r5, [r1, #4]
  76 001a 45F00103 		orr	r3, r5, #1
  77 001e 4B60     		str	r3, [r1, #4]
  78              	.L21:
  79 0020 5748     		ldr	r0, .L39+12
  80 0022 0268     		ldr	r2, [r0, #0]
  81 0024 9205     		lsls	r2, r2, #22
  82 0026 03D5     		bpl	.L10
  83 0028 8168     		ldr	r1, [r0, #8]
  84 002a 41F40074 		orr	r4, r1, #512
  85 002e 8460     		str	r4, [r0, #8]
  86              	.L10:
  87 0030 504D     		ldr	r5, .L39
  88 0032 6B68     		ldr	r3, [r5, #4]
  89 0034 23F48010 		bic	r0, r3, #1048576
  90 0038 6860     		str	r0, [r5, #4]
  91 003a 6420     		movs	r0, #100
  92 003c FFF7FEFF 		bl	CLK001_Delay
  93 0040 6A68     		ldr	r2, [r5, #4]
  94 0042 42F40021 		orr	r1, r2, #524288
  95 0046 6420     		movs	r0, #100
  96 0048 6960     		str	r1, [r5, #4]
  97 004a FFF7FEFF 		bl	CLK001_Delay
  98 004e 6C68     		ldr	r4, [r5, #4]
  99 0050 4C49     		ldr	r1, .L39+16
 100 0052 24F48033 		bic	r3, r4, #65536
 101 0056 23F00200 		bic	r0, r3, #2
 102 005a 6860     		str	r0, [r5, #4]
 103 005c 4A68     		ldr	r2, [r1, #4]
 104 005e 12F0300F 		tst	r2, #48
 105 0062 1CD0     		beq	.L11
 106 0064 4C68     		ldr	r4, [r1, #4]
 107 0066 24F03003 		bic	r3, r4, #48
 108 006a 4B60     		str	r3, [r1, #4]
 109 006c 4868     		ldr	r0, [r1, #4]
 110 006e 40F44032 		orr	r2, r0, #196608
 111 0072 4A60     		str	r2, [r1, #4]
 112 0074 E968     		ldr	r1, [r5, #12]
 113 0076 21F00104 		bic	r4, r1, #1
 114 007a EC60     		str	r4, [r5, #12]
 115 007c 6B68     		ldr	r3, [r5, #4]
 116 007e 23F40030 		bic	r0, r3, #131072
 117 0082 6860     		str	r0, [r5, #4]
 118 0084 44F25064 		movw	r4, #18000
 119              	.L13:
 120 0088 3A4D     		ldr	r5, .L39
 121 008a 0A20     		movs	r0, #10
 122 008c FFF7FEFF 		bl	CLK001_Delay
 123 0090 2A68     		ldr	r2, [r5, #0]
 124 0092 02F46071 		and	r1, r2, #896
 125 0096 B1F5607F 		cmp	r1, #896
 126 009a 5BD1     		bne	.L36
 127              	.L12:
 128 009c 2B68     		ldr	r3, [r5, #0]
 129              	.L11:
 130 009e 354B     		ldr	r3, .L39
 131 00a0 1868     		ldr	r0, [r3, #0]
 132 00a2 4507     		lsls	r5, r0, #29
 133 00a4 2DD4     		bmi	.L15
 134 00a6 384D     		ldr	r5, .L39+20
 135 00a8 3849     		ldr	r1, .L39+24
 136 00aa 1324     		movs	r4, #19
 137 00ac 85E81200 		stmia	r5, {r1, r4}
 138 00b0 5A68     		ldr	r2, [r3, #4]
 139 00b2 374D     		ldr	r5, .L39+28
 140 00b4 42F00101 		orr	r1, r2, #1
 141 00b8 5960     		str	r1, [r3, #4]
 142 00ba 5C68     		ldr	r4, [r3, #4]
 143 00bc 44F01000 		orr	r0, r4, #16
 144 00c0 5860     		str	r0, [r3, #4]
 145 00c2 9D60     		str	r5, [r3, #8]
 146 00c4 5A68     		ldr	r2, [r3, #4]
 147 00c6 42F04001 		orr	r1, r2, #64
 148 00ca 5960     		str	r1, [r3, #4]
 149 00cc 5C68     		ldr	r4, [r3, #4]
 150 00ce 24F01000 		bic	r0, r4, #16
 151 00d2 5860     		str	r0, [r3, #4]
 152 00d4 5D68     		ldr	r5, [r3, #4]
 153 00d6 45F48022 		orr	r2, r5, #262144
 154 00da 5A60     		str	r2, [r3, #4]
 155 00dc 44F25064 		movw	r4, #18000
 156              	.L17:
 157 00e0 0A20     		movs	r0, #10
 158 00e2 FFF7FEFF 		bl	CLK001_Delay
 159 00e6 234B     		ldr	r3, .L39
 160 00e8 1968     		ldr	r1, [r3, #0]
 161 00ea 11F0040F 		tst	r1, #4
 162 00ee 1846     		mov	r0, r3
 163 00f0 33D0     		beq	.L37
 164              	.L16:
 165 00f2 0268     		ldr	r2, [r0, #0]
 166 00f4 1F4D     		ldr	r5, .L39
 167 00f6 5007     		lsls	r0, r2, #29
 168 00f8 03D5     		bpl	.L15
 169 00fa 6B68     		ldr	r3, [r5, #4]
 170 00fc 23F00101 		bic	r1, r3, #1
 171 0100 6960     		str	r1, [r5, #4]
 172              	.L15:
 173 0102 2448     		ldr	r0, .L39+32
 174 0104 2149     		ldr	r1, .L39+24
 175 0106 C468     		ldr	r4, [r0, #12]
 176 0108 44F48035 		orr	r5, r4, #65536
 177 010c 194C     		ldr	r4, .L39
 178 010e C560     		str	r5, [r0, #12]
 179 0110 6268     		ldr	r2, [r4, #4]
 180 0112 1D4D     		ldr	r5, .L39+20
 181 0114 22F04003 		bic	r3, r2, #64
 182 0118 6360     		str	r3, [r4, #4]
 183 011a 6420     		movs	r0, #100
 184 011c 2960     		str	r1, [r5, #0]
 185 011e FFF7FEFF 		bl	CLK001_Delay
 186 0122 1D48     		ldr	r0, .L39+36
 187 0124 A060     		str	r0, [r4, #8]
 188 0126 6420     		movs	r0, #100
 189 0128 FFF7FEFF 		bl	CLK001_Delay
 190 012c 1B4B     		ldr	r3, .L39+40
 191 012e 0422     		movs	r2, #4
 192 0130 9620     		movs	r0, #150
 193 0132 6A60     		str	r2, [r5, #4]
 194 0134 A360     		str	r3, [r4, #8]
 195 0136 FFF7FEFF 		bl	CLK001_Delay
 196 013a 1949     		ldr	r1, .L39+44
 197 013c A160     		str	r1, [r4, #8]
 198 013e A068     		ldr	r0, [r4, #8]
 199 0140 10F0706F 		tst	r0, #251658240
 200 0144 0CD0     		beq	.L38
 201              	.L19:
 202 0146 174A     		ldr	r2, .L39+48
 203 0148 0521     		movs	r1, #5
 204 014a D160     		str	r1, [r2, #12]
 205              	.L9:
 206 014c BDE83840 		pop	{r3, r4, r5, lr}
 207 0150 FFF7FEBF 		b	SystemCoreClockUpdate
 208              	.L36:
 209 0154 013C     		subs	r4, r4, #1
 210 0156 97D1     		bne	.L13
 211 0158 A0E7     		b	.L12
 212              	.L37:
 213 015a 013C     		subs	r4, r4, #1
 214 015c C0D1     		bne	.L17
 215 015e C8E7     		b	.L16
 216              	.L38:
 217 0160 A268     		ldr	r2, [r4, #8]
 218 0162 C2F30623 		ubfx	r3, r2, #8, #7
 219 0166 272B     		cmp	r3, #39
 220 0168 EDD1     		bne	.L19
 221 016a A068     		ldr	r0, [r4, #8]
 222 016c 4106     		lsls	r1, r0, #25
 223 016e 08BF     		it	eq
 224 0170 A068     		ldreq	r0, [r4, #8]
 225 0172 E8E7     		b	.L19
 226              	.L40:
 227              		.align	2
 228              	.L39:
 229 0174 10470050 		.word	1342195472
 230 0178 02000100 		.word	65538
 231 017c 00420050 		.word	1342194176
 232 0180 00440050 		.word	1342194688
 233 0184 00470050 		.word	1342195456
 234 0188 00000000 		.word	.LANCHOR0
 235 018c 00389C1C 		.word	480000000
 236 0190 00271300 		.word	1255168
 237 0194 00460050 		.word	1342195200
 238 0198 00270700 		.word	468736
 239 019c 00270400 		.word	272128
 240 01a0 00270300 		.word	206592
 241 01a4 60410050 		.word	1342194016
 243              		.section	.text.AllowPLLInitByStartup,"ax",%progbits
 244              		.align	1
 245              		.global	AllowPLLInitByStartup
 246              		.thumb
 247              		.thumb_func
 249              	AllowPLLInitByStartup:
 250              		@ args = 0, pretend = 0, frame = 0
 251              		@ frame_needed = 0, uses_anonymous_args = 0
 252              		@ link register save eliminated.
 253 0000 0020     		movs	r0, #0
 254 0002 7047     		bx	lr
 256              		.bss
 257              		.align	2
 258              		.set	.LANCHOR0,. + 0
 261              	VCO:
 262 0000 00000000 		.space	4
 265              	stepping_K2DIV:
 266 0004 00000000 		.space	4
 267              		.ident	"GCC: (GNU Tools for ARM Embedded Processors) 4.7.4 20130913 (release) [ARM/embedded-4_7-br