   1              		.syntax unified
   2              		.cpu cortex-m4
   3              		.eabi_attribute 27, 3
   4              		.fpu fpv4-sp-d16
   5              		.eabi_attribute 20, 1
   6              		.eabi_attribute 21, 1
   7              		.eabi_attribute 23, 3
   8              		.eabi_attribute 24, 1
   9              		.eabi_attribute 25, 1
  10              		.eabi_attribute 26, 1
  11              		.eabi_attribute 30, 4
  12              		.eabi_attribute 34, 1
  13              		.eabi_attribute 18, 4
  14              		.thumb
  15              		.file	"rt_CMSIS.c"
  16              		.section	.text.rt_ms2tick,"ax",%progbits
  17              		.align	1
  18              		.thumb
  19              		.thumb_func
  21              	rt_ms2tick:
  22              		@ args = 0, pretend = 0, frame = 0
  23              		@ frame_needed = 0, uses_anonymous_args = 0
  24              		@ link register save eliminated.
  25 0000 B0F1FF3F 		cmp	r0, #-1
  26 0004 18D0     		beq	.L3
  27 0006 4FF41063 		mov	r3, #2304
  28 000a C0F23D03 		movt	r3, 61
  29 000e 9842     		cmp	r0, r3
  30 0010 15D8     		bhi	.L4
  31 0012 40F20001 		movw	r1, #:lower16:os_clockrate
  32 0016 C0F20001 		movt	r1, #:upper16:os_clockrate
  33 001a 0B68     		ldr	r3, [r1, #0]
  34 001c 03F1FF32 		add	r2, r3, #-1
  35 0020 4FF47A71 		mov	r1, #1000
  36 0024 01FB0020 		mla	r0, r1, r0, r2
  37 0028 B0FBF3F0 		udiv	r0, r0, r3
  38 002c 4FF6FE73 		movw	r3, #65534
  39 0030 9842     		cmp	r0, r3
  40 0032 28BF     		it	cs
  41 0034 1846     		movcs	r0, r3
  42 0036 7047     		bx	lr
  43              	.L3:
  44 0038 4FF6FF70 		movw	r0, #65535
  45 003c 7047     		bx	lr
  46              	.L4:
  47 003e 4FF6FE70 		movw	r0, #65534
  48 0042 7047     		bx	lr
  50              		.section	.text.rt_tid2ptcb,"ax",%progbits
  51              		.align	1
  52              		.thumb
  53              		.thumb_func
  55              	rt_tid2ptcb:
  56              		@ args = 0, pretend = 0, frame = 0
  57              		@ frame_needed = 0, uses_anonymous_args = 0
  58              		@ link register save eliminated.
  59 0000 0346     		mov	r3, r0
  60 0002 40B1     		cbz	r0, .L7
  61 0004 10F0030F 		tst	r0, #3
  62 0008 08D1     		bne	.L8
  63 000a 0078     		ldrb	r0, [r0, #0]	@ zero_extendqisi2
  64 000c 0028     		cmp	r0, #0
  65 000e 0CBF     		ite	eq
  66 0010 1846     		moveq	r0, r3
  67 0012 0020     		movne	r0, #0
  68 0014 7047     		bx	lr
  69              	.L7:
  70 0016 4FF00000 		mov	r0, #0
  71 001a 7047     		bx	lr
  72              	.L8:
  73 001c 4FF00000 		mov	r0, #0
  74 0020 7047     		bx	lr
  76              		.section	.text.osThreadExit,"ax",%progbits
  77              		.align	1
  78              		.global	osThreadExit
  79              		.thumb
  80              		.thumb_func
  82              	osThreadExit:
  83              		@ Volatile: function does not return.
  84              		@ args = 0, pretend = 0, frame = 0
  85              		@ frame_needed = 0, uses_anonymous_args = 0
  86 0000 00B5     		push	{lr}
  87              	@ 643 "../Dave/Generated/src/RTOS001/SRC/rt_CMSIS.c" 1
  88 0002 DFF80CC0 		ldr r12,=svcThreadGetId
  89 0006 00DF     		svc 0
  90              	@ 0 "" 2
  91              	@ 644 "../Dave/Generated/src/RTOS001/SRC/rt_CMSIS.c" 1
  92 0008 DFF808C0 		ldr r12,=svcThreadTerminate
  93 000c 00DF     		svc 0
  94              	@ 0 "" 2
  95              		.thumb
  96              	.L11:
  97 000e FEE7     		b	.L11
  99              		.section	.text.rt_timer_insert,"ax",%progbits
 100              		.align	1
 101              		.thumb
 102              		.thumb_func
 104              	rt_timer_insert:
 105              		@ args = 0, pretend = 0, frame = 0
 106              		@ frame_needed = 0, uses_anonymous_args = 0
 107              		@ link register save eliminated.
 108 0000 10B4     		push	{r4}
 109 0002 40F20003 		movw	r3, #:lower16:os_timer_head
 110 0006 C0F20003 		movt	r3, #:upper16:os_timer_head
 111 000a 1C68     		ldr	r4, [r3, #0]
 112 000c FCB1     		cbz	r4, .L20
 113 000e 2289     		ldrh	r2, [r4, #8]
 114 0010 9142     		cmp	r1, r2
 115 0012 04D2     		bcs	.L23
 116 0014 11E0     		b	.L21
 117              	.L16:
 118 0016 1A89     		ldrh	r2, [r3, #8]
 119 0018 8A42     		cmp	r2, r1
 120 001a 11D8     		bhi	.L14
 121 001c 1C46     		mov	r4, r3
 122              	.L23:
 123 001e 891A     		subs	r1, r1, r2
 124 0020 2368     		ldr	r3, [r4, #0]
 125 0022 002B     		cmp	r3, #0
 126 0024 F7D1     		bne	.L16
 127 0026 15E0     		b	.L13
 128              	.L19:
 129 0028 0CB1     		cbz	r4, .L17
 130 002a 2060     		str	r0, [r4, #0]
 131 002c 15E0     		b	.L12
 132              	.L17:
 133 002e 40F20003 		movw	r3, #:lower16:os_timer_head
 134 0032 C0F20003 		movt	r3, #:upper16:os_timer_head
 135 0036 1860     		str	r0, [r3, #0]
 136 0038 0FE0     		b	.L12
 137              	.L21:
 138 003a 2346     		mov	r3, r4
 139 003c 4FF00004 		mov	r4, #0
 140              	.L14:
 141 0040 0360     		str	r3, [r0, #0]
 142 0042 89B2     		uxth	r1, r1
 143 0044 0181     		strh	r1, [r0, #8]	@ movhi
 144 0046 1A89     		ldrh	r2, [r3, #8]
 145 0048 511A     		subs	r1, r2, r1
 146 004a 1981     		strh	r1, [r3, #8]	@ movhi
 147 004c ECE7     		b	.L19
 148              	.L20:
 149 004e 2346     		mov	r3, r4
 150 0050 4FF00004 		mov	r4, #0
 151              	.L13:
 152 0054 0360     		str	r3, [r0, #0]
 153 0056 0181     		strh	r1, [r0, #8]	@ movhi
 154 0058 E6E7     		b	.L19
 155              	.L12:
 156 005a 10BC     		pop	{r4}
 157 005c 7047     		bx	lr
 159              		.section	.text.rt_timer_remove,"ax",%progbits
 160              		.align	1
 161              		.thumb
 162              		.thumb_func
 164              	rt_timer_remove:
 165              		@ args = 0, pretend = 0, frame = 0
 166              		@ frame_needed = 0, uses_anonymous_args = 0
 167              		@ link register save eliminated.
 168 0000 40F20003 		movw	r3, #:lower16:os_timer_head
 169 0004 C0F20003 		movt	r3, #:upper16:os_timer_head
 170 0008 1A68     		ldr	r2, [r3, #0]
 171 000a EAB1     		cbz	r2, .L32
 172 000c 8242     		cmp	r2, r0
 173 000e 03D1     		bne	.L34
 174 0010 0BE0     		b	.L26
 175              	.L29:
 176 0012 8842     		cmp	r0, r1
 177 0014 1ED0     		beq	.L28
 178 0016 0A46     		mov	r2, r1
 179              	.L34:
 180 0018 1168     		ldr	r1, [r2, #0]
 181 001a 0029     		cmp	r1, #0
 182 001c F9D1     		bne	.L29
 183 001e 4FF0FF30 		mov	r0, #-1
 184 0022 7047     		bx	lr
 185              	.L31:
 186 0024 0368     		ldr	r3, [r0, #0]
 187 0026 1360     		str	r3, [r2, #0]
 188 0028 05E0     		b	.L30
 189              	.L26:
 190 002a 0168     		ldr	r1, [r0, #0]
 191 002c 40F20002 		movw	r2, #:lower16:os_timer_head
 192 0030 C0F20002 		movt	r2, #:upper16:os_timer_head
 193 0034 1160     		str	r1, [r2, #0]
 194              	.L30:
 195 0036 0368     		ldr	r3, [r0, #0]
 196 0038 4BB1     		cbz	r3, .L33
 197 003a 0089     		ldrh	r0, [r0, #8]
 198 003c 1989     		ldrh	r1, [r3, #8]
 199 003e 4218     		adds	r2, r0, r1
 200 0040 1A81     		strh	r2, [r3, #8]	@ movhi
 201 0042 4FF00000 		mov	r0, #0
 202 0046 7047     		bx	lr
 203              	.L32:
 204 0048 4FF0FF30 		mov	r0, #-1
 205 004c 7047     		bx	lr
 206              	.L33:
 207 004e 4FF00000 		mov	r0, #0
 208 0052 7047     		bx	lr
 209              	.L28:
 210 0054 002A     		cmp	r2, #0
 211 0056 E5D1     		bne	.L31
 212 0058 E7E7     		b	.L26
 214              		.section	.text.isrMessagePut,"ax",%progbits
 215              		.align	1
 216              		.thumb
 217              		.thumb_func
 219              	isrMessagePut:
 220              		@ args = 0, pretend = 0, frame = 0
 221              		@ frame_needed = 0, uses_anonymous_args = 0
 222 0000 38B5     		push	{r3, r4, r5, lr}
 223 0002 0D46     		mov	r5, r1
 224 0004 0446     		mov	r4, r0
 225 0006 68B1     		cbz	r0, .L38
 226 0008 7AB9     		cbnz	r2, .L39
 227 000a 0378     		ldrb	r3, [r0, #0]	@ zero_extendqisi2
 228 000c 012B     		cmp	r3, #1
 229 000e 0FD1     		bne	.L40
 230 0010 FFF7FEFF 		bl	rt_mbx_check
 231 0014 78B1     		cbz	r0, .L41
 232 0016 2046     		mov	r0, r4
 233 0018 2946     		mov	r1, r5
 234 001a FFF7FEFF 		bl	isr_mbx_send
 235 001e 4FF00000 		mov	r0, #0
 236 0022 38BD     		pop	{r3, r4, r5, pc}
 237              	.L38:
 238 0024 4FF08000 		mov	r0, #128
 239 0028 38BD     		pop	{r3, r4, r5, pc}
 240              	.L39:
 241 002a 4FF08000 		mov	r0, #128
 242 002e 38BD     		pop	{r3, r4, r5, pc}
 243              	.L40:
 244 0030 4FF08000 		mov	r0, #128
 245 0034 38BD     		pop	{r3, r4, r5, pc}
 246              	.L41:
 247 0036 4FF08100 		mov	r0, #129
 248 003a 38BD     		pop	{r3, r4, r5, pc}
 250              		.section	.text.svcKernelStart,"ax",%progbits
 251              		.align	1
 252              		.global	svcKernelStart
 253              		.thumb
 254              		.thumb_func
 256              	svcKernelStart:
 257              		@ args = 0, pretend = 0, frame = 0
 258              		@ frame_needed = 0, uses_anonymous_args = 0
 259 0000 10B5     		push	{r4, lr}
 260 0002 40F20003 		movw	r3, #:lower16:os_running
 261 0006 C0F20003 		movt	r3, #:upper16:os_running
 262 000a 1878     		ldrb	r0, [r3, #0]	@ zero_extendqisi2
 263 000c 50BB     		cbnz	r0, .L43
 264 000e 40F20004 		movw	r4, #:lower16:os_tsk
 265 0012 C0F20004 		movt	r4, #:upper16:os_tsk
 266 0016 2168     		ldr	r1, [r4, #0]
 267 0018 4FF00000 		mov	r0, #0
 268 001c 91F82410 		ldrb	r1, [r1, #36]	@ zero_extendqisi2
 269 0020 FFF7FEFF 		bl	rt_tsk_prio
 270 0024 2368     		ldr	r3, [r4, #0]
 271 0026 DA78     		ldrb	r2, [r3, #3]	@ zero_extendqisi2
 272 0028 FF2A     		cmp	r2, #255
 273 002a 04D1     		bne	.L44
 274 002c 986A     		ldr	r0, [r3, #40]
 275 002e 00F12000 		add	r0, r0, #32
 276              	@ 441 "C:\DAVE-3.1.10\eclipse\/../CMSIS/Include/core_cmFunc.h" 1
 277 0032 80F30988 		MSR psp, r0
 278              	
 279              	@ 0 "" 2
 280              		.thumb
 281              	.L44:
 282 0036 40F20001 		movw	r1, #:lower16:os_tsk
 283 003a C0F20001 		movt	r1, #:upper16:os_tsk
 284 003e 4A68     		ldr	r2, [r1, #4]
 285 0040 3AB9     		cbnz	r2, .L45
 286 0042 40F20000 		movw	r0, #:lower16:os_tsk
 287 0046 C0F20000 		movt	r0, #:upper16:os_tsk
 288 004a 4360     		str	r3, [r0, #4]
 289 004c 4FF00003 		mov	r3, #0
 290 0050 0360     		str	r3, [r0, #0]
 291              	.L45:
 292 0052 FFF7FEFF 		bl	rt_sys_start
 293 0056 40F20001 		movw	r1, #:lower16:os_running
 294 005a C0F20001 		movt	r1, #:upper16:os_running
 295 005e 4FF00102 		mov	r2, #1
 296 0062 0A70     		strb	r2, [r1, #0]
 297              	.L43:
 298 0064 4FF00000 		mov	r0, #0
 299 0068 10BD     		pop	{r4, pc}
 301              		.section	.text.svcKernelRunning,"ax",%progbits
 302              		.align	1
 303              		.global	svcKernelRunning
 304              		.thumb
 305              		.thumb_func
 307              	svcKernelRunning:
 308              		@ args = 0, pretend = 0, frame = 0
 309              		@ frame_needed = 0, uses_anonymous_args = 0
 310              		@ link register save eliminated.
 311 0000 40F20003 		movw	r3, #:lower16:os_running
 312 0004 C0F20003 		movt	r3, #:upper16:os_running
 313 0008 1878     		ldrb	r0, [r3, #0]	@ zero_extendqisi2
 314 000a 7047     		bx	lr
 316              		.section	.text.svcKernelSysTick,"ax",%progbits
 317              		.align	1
 318              		.global	svcKernelSysTick
 319              		.thumb
 320              		.thumb_func
 322              	svcKernelSysTick:
 323              		@ args = 0, pretend = 0, frame = 0
 324              		@ frame_needed = 0, uses_anonymous_args = 0
 325 0000 10B5     		push	{r4, lr}
 326 0002 FFF7FEFF 		bl	os_tick_val
 327 0006 0446     		mov	r4, r0
 328 0008 FFF7FEFF 		bl	os_tick_ovf
 329 000c A0B1     		cbz	r0, .L48
 330 000e FFF7FEFF 		bl	os_tick_val
 331 0012 40F20001 		movw	r1, #:lower16:os_time
 332 0016 C0F20001 		movt	r1, #:upper16:os_time
 333 001a 0A68     		ldr	r2, [r1, #0]
 334 001c 40F20003 		movw	r3, #:lower16:os_trv
 335 0020 C0F20003 		movt	r3, #:upper16:os_trv
 336 0024 1968     		ldr	r1, [r3, #0]
 337 0026 01F10101 		add	r1, r1, #1
 338 002a 02FB0112 		mla	r2, r2, r1, r1
 339 002e A042     		cmp	r0, r4
 340 0030 94BF     		ite	ls
 341 0032 1018     		addls	r0, r2, r0
 342 0034 1019     		addhi	r0, r2, r4
 343 0036 10BD     		pop	{r4, pc}
 344              	.L48:
 345 0038 40F20003 		movw	r3, #:lower16:os_trv
 346 003c C0F20003 		movt	r3, #:upper16:os_trv
 347 0040 1868     		ldr	r0, [r3, #0]
 348 0042 40F20001 		movw	r1, #:lower16:os_time
 349 0046 C0F20001 		movt	r1, #:upper16:os_time
 350 004a 0A68     		ldr	r2, [r1, #0]
 351 004c 00FB0223 		mla	r3, r0, r2, r2
 352 0050 E018     		adds	r0, r4, r3
 353 0052 10BD     		pop	{r4, pc}
 355              		.section	.text.osKernelStart,"ax",%progbits
 356              		.align	1
 357              		.global	osKernelStart
 358              		.thumb
 359              		.thumb_func
 361              	osKernelStart:
 362              		@ args = 0, pretend = 0, frame = 32
 363              		@ frame_needed = 0, uses_anonymous_args = 0
 364 0000 30B5     		push	{r4, r5, lr}
 365 0002 89B0     		sub	sp, sp, #36
 366              	@ 383 "C:\DAVE-3.1.10\eclipse\/../CMSIS/Include/core_cmFunc.h" 1
 367 0004 EFF30584 		MRS r4, ipsr
 368              	@ 0 "" 2
 369              		.thumb
 370 0008 002C     		cmp	r4, #0
 371 000a 3AD1     		bne	.L59
 372              	@ 356 "C:\DAVE-3.1.10\eclipse\/../CMSIS/Include/core_cmFunc.h" 1
 373 000c EFF31484 		MRS r4, control
 374              	@ 0 "" 2
 375              		.thumb
 376 0010 04F00304 		and	r4, r4, #3
 377 0014 032C     		cmp	r4, #3
 378 0016 30D8     		bhi	.L52
 379 0018 DFE804F0 		tbb	[pc, r4]
 380              	.L56:
 381 001c 02       		.byte	(.L53-.L56)/2
 382 001d 36       		.byte	(.L60-.L56)/2
 383 001e 16       		.byte	(.L54-.L56)/2
 384 001f 27       		.byte	(.L55-.L56)/2
 385              		.align	1
 386              	.L53:
 387 0020 08AC     		add	r4, sp, #32
 388              	@ 441 "C:\DAVE-3.1.10\eclipse\/../CMSIS/Include/core_cmFunc.h" 1
 389 0022 84F30988 		MSR psp, r4
 390              	
 391              	@ 0 "" 2
 392              		.thumb
 393 0026 40F20004 		movw	r4, #:lower16:os_flags
 394 002a C0F20004 		movt	r4, #:upper16:os_flags
 395 002e 2478     		ldrb	r4, [r4, #0]	@ zero_extendqisi2
 396 0030 14F0010F 		tst	r4, #1
 397 0034 14BF     		ite	ne
 398 0036 0224     		movne	r4, #2
 399 0038 0324     		moveq	r4, #3
 400              	@ 369 "C:\DAVE-3.1.10\eclipse\/../CMSIS/Include/core_cmFunc.h" 1
 401 003a 84F31488 		MSR control, r4
 402              	@ 0 "" 2
 403              	@ 382 "C:\DAVE-3.1.10\eclipse\/../CMSIS/Include/core_cmInstr.h" 1
 404 003e BFF34F8F 		dsb
 405              	@ 0 "" 2
 406              	@ 371 "C:\DAVE-3.1.10\eclipse\/../CMSIS/Include/core_cmInstr.h" 1
 407 0042 BFF36F8F 		isb
 408              	@ 0 "" 2
 409              		.thumb
 410 0046 18E0     		b	.L52
 411              	.L54:
 412 0048 40F20004 		movw	r4, #:lower16:os_flags
 413 004c C0F20004 		movt	r4, #:upper16:os_flags
 414 0050 2478     		ldrb	r4, [r4, #0]	@ zero_extendqisi2
 415 0052 14F0010F 		tst	r4, #1
 416 0056 10D1     		bne	.L52
 417 0058 4FF00304 		mov	r4, #3
 418              	@ 369 "C:\DAVE-3.1.10\eclipse\/../CMSIS/Include/core_cmFunc.h" 1
 419 005c 84F31488 		MSR control, r4
 420              	@ 0 "" 2
 421              	@ 382 "C:\DAVE-3.1.10\eclipse\/../CMSIS/Include/core_cmInstr.h" 1
 422 0060 BFF34F8F 		dsb
 423              	@ 0 "" 2
 424              	@ 371 "C:\DAVE-3.1.10\eclipse\/../CMSIS/Include/core_cmInstr.h" 1
 425 0064 BFF36F8F 		isb
 426              	@ 0 "" 2
 427              		.thumb
 428 0068 07E0     		b	.L52
 429              	.L55:
 430 006a 40F20004 		movw	r4, #:lower16:os_flags
 431 006e C0F20004 		movt	r4, #:upper16:os_flags
 432 0072 2478     		ldrb	r4, [r4, #0]	@ zero_extendqisi2
 433 0074 14F0010F 		tst	r4, #1
 434 0078 09D1     		bne	.L61
 435              	.L52:
 436              	@ 489 "../Dave/Generated/src/RTOS001/SRC/rt_CMSIS.c" 1
 437 007a DFF81CC0 		ldr r12,=svcKernelStart
 438 007e 00DF     		svc 0
 439              	@ 0 "" 2
 440              		.thumb
 441 0080 07E0     		b	.L51
 442              	.L59:
 443 0082 4FF08200 		mov	r0, #130
 444 0086 04E0     		b	.L51
 445              	.L60:
 446 0088 4FF0FF00 		mov	r0, #255
 447 008c 01E0     		b	.L51
 448              	.L61:
 449 008e 4FF0FF00 		mov	r0, #255
 450              	.L51:
 451 0092 09B0     		add	sp, sp, #36
 452 0094 30BD     		pop	{r4, r5, pc}
 454 0096 0000     		.section	.text.osKernelRunning,"ax",%progbits
 455              		.align	1
 456              		.global	osKernelRunning
 457              		.thumb
 458              		.thumb_func
 460              	osKernelRunning:
 461              		@ args = 0, pretend = 0, frame = 0
 462              		@ frame_needed = 0, uses_anonymous_args = 0
 463 0000 10B5     		push	{r4, lr}
 464              	@ 383 "C:\DAVE-3.1.10\eclipse\/../CMSIS/Include/core_cmFunc.h" 1
 465 0002 EFF30584 		MRS r4, ipsr
 466              	@ 0 "" 2
 467              		.thumb
 468 0006 24B9     		cbnz	r4, .L63
 469              	@ 356 "C:\DAVE-3.1.10\eclipse\/../CMSIS/Include/core_cmFunc.h" 1
 470 0008 EFF31484 		MRS r4, control
 471              	@ 0 "" 2
 472              		.thumb
 473 000c 14F0010F 		tst	r4, #1
 474 0010 05D1     		bne	.L64
 475              	.L63:
 476 0012 40F20003 		movw	r3, #:lower16:os_running
 477 0016 C0F20003 		movt	r3, #:upper16:os_running
 478 001a 1878     		ldrb	r0, [r3, #0]	@ zero_extendqisi2
 479 001c 10BD     		pop	{r4, pc}
 480              	.L64:
 481              	@ 490 "../Dave/Generated/src/RTOS001/SRC/rt_CMSIS.c" 1
 482 001e DFF808C0 		ldr r12,=svcKernelRunning
 483 0022 00DF     		svc 0
 484              	@ 0 "" 2
 485              		.thumb
 486 0024 10BD     		pop	{r4, pc}
 488 0026 0000     		.section	.text.osKernelSysTick,"ax",%progbits
 489              		.align	1
 490              		.global	osKernelSysTick
 491              		.thumb
 492              		.thumb_func
 494              	osKernelSysTick:
 495              		@ args = 0, pretend = 0, frame = 0
 496              		@ frame_needed = 0, uses_anonymous_args = 0
 497 0000 10B5     		push	{r4, lr}
 498              	@ 383 "C:\DAVE-3.1.10\eclipse\/../CMSIS/Include/core_cmFunc.h" 1
 499 0002 EFF30584 		MRS r4, ipsr
 500              	@ 0 "" 2
 501              		.thumb
 502 0006 1CB9     		cbnz	r4, .L68
 503              	@ 491 "../Dave/Generated/src/RTOS001/SRC/rt_CMSIS.c" 1
 504 0008 DFF80CC0 		ldr r12,=svcKernelSysTick
 505 000c 00DF     		svc 0
 506              	@ 0 "" 2
 507              		.thumb
 508 000e 10BD     		pop	{r4, pc}
 509              	.L68:
 510 0010 4FF00000 		mov	r0, #0
 511 0014 10BD     		pop	{r4, pc}
 513 0016 0000     		.section	.text.svcThreadCreate,"ax",%progbits
 514              		.align	1
 515              		.global	svcThreadCreate
 516              		.thumb
 517              		.thumb_func
 519              	svcThreadCreate:
 520              		@ args = 0, pretend = 0, frame = 0
 521              		@ frame_needed = 0, uses_anonymous_args = 0
 522 0000 70B5     		push	{r4, r5, r6, lr}
 523 0002 0E46     		mov	r6, r1
 524 0004 0446     		mov	r4, r0
 525 0006 0028     		cmp	r0, #0
 526 0008 2FD0     		beq	.L75
 527 000a 0068     		ldr	r0, [r0, #0]
 528 000c 0028     		cmp	r0, #0
 529 000e 2FD0     		beq	.L76
 530 0010 A288     		ldrh	r2, [r4, #4]
 531 0012 15B2     		sxth	r5, r2
 532 0014 15F1030F 		cmn	r5, #3
 533 0018 2DDB     		blt	.L77
 534 001a 032D     		cmp	r5, #3
 535 001c 2EDC     		bgt	.L78
 536 001e E168     		ldr	r1, [r4, #12]
 537 0020 0029     		cmp	r1, #0
 538 0022 44D0     		beq	.L71
 539 0024 40F20000 		movw	r0, #:lower16:os_stack_mem
 540 0028 C0F20000 		movt	r0, #:upper16:os_stack_mem
 541 002c FFF7FEFF 		bl	rt_alloc_mem
 542 0030 0546     		mov	r5, r0
 543 0032 0028     		cmp	r0, #0
 544 0034 2BD1     		bne	.L81
 545 0036 24E0     		b	.L79
 546              	.L73:
 547 0038 40F20000 		movw	r0, #:lower16:os_stack_mem
 548 003c C0F20000 		movt	r0, #:upper16:os_stack_mem
 549 0040 2946     		mov	r1, r5
 550 0042 FFF7FEFF 		bl	rt_free_mem
 551 0046 4FF00000 		mov	r0, #0
 552 004a 70BD     		pop	{r4, r5, r6, pc}
 553              	.L74:
 554 004c 01F1FF30 		add	r0, r1, #-1
 555 0050 40F20001 		movw	r1, #:lower16:os_active_TCB
 556 0054 C0F20001 		movt	r1, #:upper16:os_active_TCB
 557 0058 51F82000 		ldr	r0, [r1, r0, lsl #2]
 558 005c 836A     		ldr	r3, [r0, #40]
 559 005e 40F20002 		movw	r2, #:lower16:osThreadExit
 560 0062 C0F20002 		movt	r2, #:upper16:osThreadExit
 561 0066 5A63     		str	r2, [r3, #52]
 562 0068 70BD     		pop	{r4, r5, r6, pc}
 563              	.L75:
 564 006a 4FF00000 		mov	r0, #0
 565 006e 70BD     		pop	{r4, r5, r6, pc}
 566              	.L76:
 567 0070 4FF00000 		mov	r0, #0
 568 0074 70BD     		pop	{r4, r5, r6, pc}
 569              	.L77:
 570 0076 4FF00000 		mov	r0, #0
 571 007a 70BD     		pop	{r4, r5, r6, pc}
 572              	.L78:
 573 007c 4FF00000 		mov	r0, #0
 574 0080 70BD     		pop	{r4, r5, r6, pc}
 575              	.L79:
 576 0082 4FF00000 		mov	r0, #0
 577 0086 70BD     		pop	{r4, r5, r6, pc}
 578              	.L80:
 579 0088 4FF00000 		mov	r0, #0
 580 008c 70BD     		pop	{r4, r5, r6, pc}
 581              	.L81:
 582 008e B4F90430 		ldrsh	r3, [r4, #4]
 583 0092 03F10403 		add	r3, r3, #4
 584 0096 E268     		ldr	r2, [r4, #12]
 585 0098 2068     		ldr	r0, [r4, #0]
 586 009a 43EA0221 		orr	r1, r3, r2, lsl #8
 587 009e 2A46     		mov	r2, r5
 588 00a0 3346     		mov	r3, r6
 589 00a2 FFF7FEFF 		bl	rt_tsk_create
 590 00a6 0146     		mov	r1, r0
 591 00a8 0028     		cmp	r0, #0
 592 00aa CFD1     		bne	.L74
 593 00ac C4E7     		b	.L73
 594              	.L71:
 595 00ae 11B2     		sxth	r1, r2
 596 00b0 01F10401 		add	r1, r1, #4
 597 00b4 4FF00002 		mov	r2, #0
 598 00b8 3346     		mov	r3, r6
 599 00ba FFF7FEFF 		bl	rt_tsk_create
 600 00be 0146     		mov	r1, r0
 601 00c0 0028     		cmp	r0, #0
 602 00c2 C3D1     		bne	.L74
 603 00c4 E0E7     		b	.L80
 605              		.section	.text.svcThreadGetId,"ax",%progbits
 606              		.align	1
 607              		.global	svcThreadGetId
 608              		.thumb
 609              		.thumb_func
 611              	svcThreadGetId:
 612              		@ args = 0, pretend = 0, frame = 0
 613              		@ frame_needed = 0, uses_anonymous_args = 0
 614 0000 08B5     		push	{r3, lr}
 615 0002 FFF7FEFF 		bl	rt_tsk_self
 616 0006 40B1     		cbz	r0, .L85
 617 0008 00F1FF30 		add	r0, r0, #-1
 618 000c 40F20002 		movw	r2, #:lower16:os_active_TCB
 619 0010 C0F20002 		movt	r2, #:upper16:os_active_TCB
 620 0014 52F82000 		ldr	r0, [r2, r0, lsl #2]
 621 0018 08BD     		pop	{r3, pc}
 622              	.L85:
 623 001a 4FF00000 		mov	r0, #0
 624 001e 08BD     		pop	{r3, pc}
 626              		.section	.text.svcThreadTerminate,"ax",%progbits
 627              		.align	1
 628              		.global	svcThreadTerminate
 629              		.thumb
 630              		.thumb_func
 632              	svcThreadTerminate:
 633              		@ args = 0, pretend = 0, frame = 0
 634              		@ frame_needed = 0, uses_anonymous_args = 0
 635 0000 10B5     		push	{r4, lr}
 636 0002 FFF7FEFF 		bl	rt_tid2ptcb
 637 0006 0346     		mov	r3, r0
 638 0008 A8B1     		cbz	r0, .L89
 639 000a C28C     		ldrh	r2, [r0, #38]
 640 000c 0AB1     		cbz	r2, .L90
 641 000e C46A     		ldr	r4, [r0, #44]
 642 0010 01E0     		b	.L88
 643              	.L90:
 644 0012 4FF00004 		mov	r4, #0
 645              	.L88:
 646 0016 D878     		ldrb	r0, [r3, #3]	@ zero_extendqisi2
 647 0018 FFF7FEFF 		bl	rt_tsk_delete
 648 001c FF28     		cmp	r0, #255
 649 001e 0DD0     		beq	.L91
 650 0020 7CB1     		cbz	r4, .L92
 651 0022 40F20000 		movw	r0, #:lower16:os_stack_mem
 652 0026 C0F20000 		movt	r0, #:upper16:os_stack_mem
 653 002a 2146     		mov	r1, r4
 654 002c FFF7FEFF 		bl	rt_free_mem
 655 0030 4FF00000 		mov	r0, #0
 656 0034 10BD     		pop	{r4, pc}
 657              	.L89:
 658 0036 4FF08000 		mov	r0, #128
 659 003a 10BD     		pop	{r4, pc}
 660              	.L91:
 661 003c 4FF08100 		mov	r0, #129
 662 0040 10BD     		pop	{r4, pc}
 663              	.L92:
 664 0042 4FF00000 		mov	r0, #0
 665 0046 10BD     		pop	{r4, pc}
 667              		.section	.text.svcThreadYield,"ax",%progbits
 668              		.align	1
 669              		.global	svcThreadYield
 670              		.thumb
 671              		.thumb_func
 673              	svcThreadYield:
 674              		@ args = 0, pretend = 0, frame = 0
 675              		@ frame_needed = 0, uses_anonymous_args = 0
 676 0000 08B5     		push	{r3, lr}
 677 0002 FFF7FEFF 		bl	rt_tsk_pass
 678 0006 4FF00000 		mov	r0, #0
 679 000a 08BD     		pop	{r3, pc}
 681              		.section	.text.svcThreadSetPriority,"ax",%progbits
 682              		.align	1
 683              		.global	svcThreadSetPriority
 684              		.thumb
 685              		.thumb_func
 687              	svcThreadSetPriority:
 688              		@ args = 0, pretend = 0, frame = 0
 689              		@ frame_needed = 0, uses_anonymous_args = 0
 690 0000 10B5     		push	{r4, lr}
 691 0002 0C46     		mov	r4, r1
 692 0004 FFF7FEFF 		bl	rt_tid2ptcb
 693 0008 0246     		mov	r2, r0
 694 000a 78B1     		cbz	r0, .L96
 695 000c 04F10303 		add	r3, r4, #3
 696 0010 98B2     		uxth	r0, r3
 697 0012 0628     		cmp	r0, #6
 698 0014 0DD8     		bhi	.L97
 699 0016 04F10401 		add	r1, r4, #4
 700 001a D078     		ldrb	r0, [r2, #3]	@ zero_extendqisi2
 701 001c C9B2     		uxtb	r1, r1
 702 001e FFF7FEFF 		bl	rt_tsk_prio
 703 0022 FF28     		cmp	r0, #255
 704 0024 0CBF     		ite	eq
 705 0026 8120     		moveq	r0, #129
 706 0028 0020     		movne	r0, #0
 707 002a 10BD     		pop	{r4, pc}
 708              	.L96:
 709 002c 4FF08000 		mov	r0, #128
 710 0030 10BD     		pop	{r4, pc}
 711              	.L97:
 712 0032 4FF08600 		mov	r0, #134
 713 0036 10BD     		pop	{r4, pc}
 715              		.section	.text.svcThreadGetPriority,"ax",%progbits
 716              		.align	1
 717              		.global	svcThreadGetPriority
 718              		.thumb
 719              		.thumb_func
 721              	svcThreadGetPriority:
 722              		@ args = 0, pretend = 0, frame = 0
 723              		@ frame_needed = 0, uses_anonymous_args = 0
 724 0000 08B5     		push	{r3, lr}
 725 0002 FFF7FEFF 		bl	rt_tid2ptcb
 726 0006 20B1     		cbz	r0, .L101
 727 0008 8078     		ldrb	r0, [r0, #2]	@ zero_extendqisi2
 728 000a A0F10400 		sub	r0, r0, #4
 729 000e 81B2     		uxth	r1, r0
 730 0010 01E0     		b	.L100
 731              	.L101:
 732 0012 4FF08401 		mov	r1, #132
 733              	.L100:
 734 0016 08B2     		sxth	r0, r1
 735 0018 08BD     		pop	{r3, pc}
 737              		.section	.text.osThreadCreate,"ax",%progbits
 738              		.align	1
 739              		.global	osThreadCreate
 740              		.thumb
 741              		.thumb_func
 743              	osThreadCreate:
 744              		@ args = 0, pretend = 0, frame = 0
 745              		@ frame_needed = 0, uses_anonymous_args = 0
 746 0000 10B5     		push	{r4, lr}
 747              	@ 383 "C:\DAVE-3.1.10\eclipse\/../CMSIS/Include/core_cmFunc.h" 1
 748 0002 EFF30584 		MRS r4, ipsr
 749              	@ 0 "" 2
 750              		.thumb
 751 0006 8CB9     		cbnz	r4, .L105
 752              	@ 356 "C:\DAVE-3.1.10\eclipse\/../CMSIS/Include/core_cmFunc.h" 1
 753 0008 EFF31484 		MRS r4, control
 754              	@ 0 "" 2
 755              		.thumb
 756 000c 14F0010F 		tst	r4, #1
 757 0010 08D1     		bne	.L104
 758 0012 40F20004 		movw	r4, #:lower16:os_running
 759 0016 C0F20004 		movt	r4, #:upper16:os_running
 760 001a 2478     		ldrb	r4, [r4, #0]	@ zero_extendqisi2
 761 001c 14B9     		cbnz	r4, .L104
 762 001e FFF7FEFF 		bl	svcThreadCreate
 763 0022 10BD     		pop	{r4, pc}
 764              	.L104:
 765              	@ 642 "../Dave/Generated/src/RTOS001/SRC/rt_CMSIS.c" 1
 766 0024 DFF80CC0 		ldr r12,=svcThreadCreate
 767 0028 00DF     		svc 0
 768              	@ 0 "" 2
 769              		.thumb
 770 002a 10BD     		pop	{r4, pc}
 771              	.L105:
 772 002c 4FF00000 		mov	r0, #0
 773 0030 10BD     		pop	{r4, pc}
 775 0032 0000     		.section	.text.osThreadGetId,"ax",%progbits
 776              		.align	1
 777              		.global	osThreadGetId
 778              		.thumb
 779              		.thumb_func
 781              	osThreadGetId:
 782              		@ args = 0, pretend = 0, frame = 0
 783              		@ frame_needed = 0, uses_anonymous_args = 0
 784 0000 10B5     		push	{r4, lr}
 785              	@ 383 "C:\DAVE-3.1.10\eclipse\/../CMSIS/Include/core_cmFunc.h" 1
 786 0002 EFF30584 		MRS r4, ipsr
 787              	@ 0 "" 2
 788              		.thumb
 789 0006 1CB9     		cbnz	r4, .L108
 790              	@ 643 "../Dave/Generated/src/RTOS001/SRC/rt_CMSIS.c" 1
 791 0008 DFF80CC0 		ldr r12,=svcThreadGetId
 792 000c 00DF     		svc 0
 793              	@ 0 "" 2
 794              		.thumb
 795 000e 10BD     		pop	{r4, pc}
 796              	.L108:
 797 0010 4FF00000 		mov	r0, #0
 798 0014 10BD     		pop	{r4, pc}
 800 0016 0000     		.section	.text.osThreadTerminate,"ax",%progbits
 801              		.align	1
 802              		.global	osThreadTerminate
 803              		.thumb
 804              		.thumb_func
 806              	osThreadTerminate:
 807              		@ args = 0, pretend = 0, frame = 0
 808              		@ frame_needed = 0, uses_anonymous_args = 0
 809 0000 10B5     		push	{r4, lr}
 810              	@ 383 "C:\DAVE-3.1.10\eclipse\/../CMSIS/Include/core_cmFunc.h" 1
 811 0002 EFF30584 		MRS r4, ipsr
 812              	@ 0 "" 2
 813              		.thumb
 814 0006 1CB9     		cbnz	r4, .L111
 815              	@ 644 "../Dave/Generated/src/RTOS001/SRC/rt_CMSIS.c" 1
 816 0008 DFF80CC0 		ldr r12,=svcThreadTerminate
 817 000c 00DF     		svc 0
 818              	@ 0 "" 2
 819              		.thumb
 820 000e 10BD     		pop	{r4, pc}
 821              	.L111:
 822 0010 4FF08200 		mov	r0, #130
 823 0014 10BD     		pop	{r4, pc}
 825 0016 0000     		.section	.text.osThreadYield,"ax",%progbits
 826              		.align	1
 827              		.global	osThreadYield
 828              		.thumb
 829              		.thumb_func
 831              	osThreadYield:
 832              		@ args = 0, pretend = 0, frame = 0
 833              		@ frame_needed = 0, uses_anonymous_args = 0
 834 0000 10B5     		push	{r4, lr}
 835              	@ 383 "C:\DAVE-3.1.10\eclipse\/../CMSIS/Include/core_cmFunc.h" 1
 836 0002 EFF30584 		MRS r4, ipsr
 837              	@ 0 "" 2
 838              		.thumb
 839 0006 1CB9     		cbnz	r4, .L114
 840              	@ 645 "../Dave/Generated/src/RTOS001/SRC/rt_CMSIS.c" 1
 841 0008 DFF80CC0 		ldr r12,=svcThreadYield
 842 000c 00DF     		svc 0
 843              	@ 0 "" 2
 844              		.thumb
 845 000e 10BD     		pop	{r4, pc}
 846              	.L114:
 847 0010 4FF08200 		mov	r0, #130
 848 0014 10BD     		pop	{r4, pc}
 850 0016 0000     		.section	.text.osThreadSetPriority,"ax",%progbits
 851              		.align	1
 852              		.global	osThreadSetPriority
 853              		.thumb
 854              		.thumb_func
 856              	osThreadSetPriority:
 857              		@ args = 0, pretend = 0, frame = 0
 858              		@ frame_needed = 0, uses_anonymous_args = 0
 859 0000 10B5     		push	{r4, lr}
 860              	@ 383 "C:\DAVE-3.1.10\eclipse\/../CMSIS/Include/core_cmFunc.h" 1
 861 0002 EFF30584 		MRS r4, ipsr
 862              	@ 0 "" 2
 863              		.thumb
 864 0006 1CB9     		cbnz	r4, .L117
 865              	@ 646 "../Dave/Generated/src/RTOS001/SRC/rt_CMSIS.c" 1
 866 0008 DFF80CC0 		ldr r12,=svcThreadSetPriority
 867 000c 00DF     		svc 0
 868              	@ 0 "" 2
 869              		.thumb
 870 000e 10BD     		pop	{r4, pc}
 871              	.L117:
 872 0010 4FF08200 		mov	r0, #130
 873 0014 10BD     		pop	{r4, pc}
 875 0016 0000     		.section	.text.osThreadGetPriority,"ax",%progbits
 876              		.align	1
 877              		.global	osThreadGetPriority
 878              		.thumb
 879              		.thumb_func
 881              	osThreadGetPriority:
 882              		@ args = 0, pretend = 0, frame = 0
 883              		@ frame_needed = 0, uses_anonymous_args = 0
 884 0000 10B5     		push	{r4, lr}
 885              	@ 383 "C:\DAVE-3.1.10\eclipse\/../CMSIS/Include/core_cmFunc.h" 1
 886 0002 EFF30584 		MRS r4, ipsr
 887              	@ 0 "" 2
 888              		.thumb
 889 0006 24B9     		cbnz	r4, .L120
 890              	@ 647 "../Dave/Generated/src/RTOS001/SRC/rt_CMSIS.c" 1
 891 0008 DFF810C0 		ldr r12,=svcThreadGetPriority
 892 000c 00DF     		svc 0
 893              	@ 0 "" 2
 894              		.thumb
 895 000e 80B2     		uxth	r0, r0
 896 0010 01E0     		b	.L119
 897              	.L120:
 898 0012 4FF08400 		mov	r0, #132
 899              	.L119:
 900 0016 00B2     		sxth	r0, r0
 901 0018 10BD     		pop	{r4, pc}
 903 001a 0000     		.section	.text.svcDelay,"ax",%progbits
 904              		.align	1
 905              		.global	svcDelay
 906              		.thumb
 907              		.thumb_func
 909              	svcDelay:
 910              		@ args = 0, pretend = 0, frame = 0
 911              		@ frame_needed = 0, uses_anonymous_args = 0
 912 0000 08B5     		push	{r3, lr}
 913 0002 38B1     		cbz	r0, .L123
 914 0004 FFF7FEFF 		bl	rt_ms2tick
 915 0008 80B2     		uxth	r0, r0
 916 000a FFF7FEFF 		bl	rt_dly_wait
 917 000e 4FF04000 		mov	r0, #64
 918 0012 08BD     		pop	{r3, pc}
 919              	.L123:
 920 0014 4FF00000 		mov	r0, #0
 921 0018 08BD     		pop	{r3, pc}
 923              		.section	.text.osDelay,"ax",%progbits
 924              		.align	1
 925              		.global	osDelay
 926              		.thumb
 927              		.thumb_func
 929              	osDelay:
 930              		@ args = 0, pretend = 0, frame = 0
 931              		@ frame_needed = 0, uses_anonymous_args = 0
 932 0000 10B5     		push	{r4, lr}
 933              	@ 383 "C:\DAVE-3.1.10\eclipse\/../CMSIS/Include/core_cmFunc.h" 1
 934 0002 EFF30584 		MRS r4, ipsr
 935              	@ 0 "" 2
 936              		.thumb
 937 0006 1CB9     		cbnz	r4, .L126
 938              	@ 825 "../Dave/Generated/src/RTOS001/SRC/rt_CMSIS.c" 1
 939 0008 DFF80CC0 		ldr r12,=svcDelay
 940 000c 00DF     		svc 0
 941              	@ 0 "" 2
 942              		.thumb
 943 000e 10BD     		pop	{r4, pc}
 944              	.L126:
 945 0010 4FF08200 		mov	r0, #130
 946 0014 10BD     		pop	{r4, pc}
 948 0016 0000     		.section	.text.osWait,"ax",%progbits
 949              		.align	1
 950              		.global	osWait
 951              		.thumb
 952              		.thumb_func
 954              	osWait:
 955              		@ args = 0, pretend = 0, frame = 0
 956              		@ frame_needed = 0, uses_anonymous_args = 0
 957              		@ link register save eliminated.
 958 0000 4FF0FF03 		mov	r3, #255
 959 0004 0360     		str	r3, [r0, #0]
 960 0006 7047     		bx	lr
 962              		.section	.text.svcTimerCreate,"ax",%progbits
 963              		.align	1
 964              		.global	svcTimerCreate
 965              		.thumb
 966              		.thumb_func
 968              	svcTimerCreate:
 969              		@ args = 0, pretend = 0, frame = 0
 970              		@ frame_needed = 0, uses_anonymous_args = 0
 971              		@ link register save eliminated.
 972 0000 10B4     		push	{r4}
 973 0002 0346     		mov	r3, r0
 974 0004 A8B1     		cbz	r0, .L130
 975 0006 0068     		ldr	r0, [r0, #0]
 976 0008 B0B1     		cbz	r0, .L131
 977 000a 5868     		ldr	r0, [r3, #4]
 978 000c F8B1     		cbz	r0, .L129
 979 000e 0129     		cmp	r1, #1
 980 0010 15D8     		bhi	.L132
 981 0012 40F20004 		movw	r4, #:lower16:osThreadId_osTimerThread
 982 0016 C0F20004 		movt	r4, #:upper16:osThreadId_osTimerThread
 983 001a 2468     		ldr	r4, [r4, #0]
 984 001c 94B1     		cbz	r4, .L133
 985 001e 0479     		ldrb	r4, [r0, #4]	@ zero_extendqisi2
 986 0020 9CB9     		cbnz	r4, .L134
 987 0022 0460     		str	r4, [r0, #0]
 988 0024 4FF00104 		mov	r4, #1
 989 0028 0471     		strb	r4, [r0, #4]
 990 002a 4171     		strb	r1, [r0, #5]
 991 002c C260     		str	r2, [r0, #12]
 992 002e 0361     		str	r3, [r0, #16]
 993 0030 0DE0     		b	.L129
 994              	.L130:
 995 0032 4FF00000 		mov	r0, #0
 996 0036 0AE0     		b	.L129
 997              	.L131:
 998 0038 4FF00000 		mov	r0, #0
 999 003c 07E0     		b	.L129
 1000              	.L132:
 1001 003e 4FF00000 		mov	r0, #0
 1002 0042 04E0     		b	.L129
 1003              	.L133:
 1004 0044 4FF00000 		mov	r0, #0
 1005 0048 01E0     		b	.L129
 1006              	.L134:
 1007 004a 4FF00000 		mov	r0, #0
 1008              	.L129:
 1009 004e 10BC     		pop	{r4}
 1010 0050 7047     		bx	lr
 1012              		.section	.text.svcTimerStart,"ax",%progbits
 1013              		.align	1
 1014              		.global	svcTimerStart
 1015              		.thumb
 1016              		.thumb_func
 1018              	svcTimerStart:
 1019              		@ args = 0, pretend = 0, frame = 0
 1020              		@ frame_needed = 0, uses_anonymous_args = 0
 1021 0000 38B5     		push	{r3, r4, r5, lr}
 1022 0002 0446     		mov	r4, r0
 1023 0004 10F0030F 		tst	r0, #3
 1024 0008 1AD1     		bne	.L140
 1025 000a E0B1     		cbz	r0, .L141
 1026 000c 0846     		mov	r0, r1
 1027 000e FFF7FEFF 		bl	rt_ms2tick
 1028 0012 0546     		mov	r5, r0
 1029 0014 D0B1     		cbz	r0, .L142
 1030 0016 2379     		ldrb	r3, [r4, #4]	@ zero_extendqisi2
 1031 0018 012B     		cmp	r3, #1
 1032 001a 06D0     		beq	.L137
 1033 001c 022B     		cmp	r3, #2
 1034 001e 18D1     		bne	.L145
 1035 0020 2046     		mov	r0, r4
 1036 0022 FFF7FEFF 		bl	rt_timer_remove
 1037 0026 B8B9     		cbnz	r0, .L144
 1038 0028 03E0     		b	.L139
 1039              	.L137:
 1040 002a 4FF00200 		mov	r0, #2
 1041 002e 2071     		strb	r0, [r4, #4]
 1042 0030 6581     		strh	r5, [r4, #10]	@ movhi
 1043              	.L139:
 1044 0032 2046     		mov	r0, r4
 1045 0034 2946     		mov	r1, r5
 1046 0036 FFF7FEFF 		bl	rt_timer_insert
 1047 003a 4FF00000 		mov	r0, #0
 1048 003e 38BD     		pop	{r3, r4, r5, pc}
 1049              	.L140:
 1050 0040 4FF08000 		mov	r0, #128
 1051 0044 38BD     		pop	{r3, r4, r5, pc}
 1052              	.L141:
 1053 0046 4FF08000 		mov	r0, #128
 1054 004a 38BD     		pop	{r3, r4, r5, pc}
 1055              	.L142:
 1056 004c 4FF08600 		mov	r0, #134
 1057 0050 38BD     		pop	{r3, r4, r5, pc}
 1058              	.L145:
 1059 0052 4FF08100 		mov	r0, #129
 1060 0056 38BD     		pop	{r3, r4, r5, pc}
 1061              	.L144:
 1062 0058 4FF08100 		mov	r0, #129
 1063 005c 38BD     		pop	{r3, r4, r5, pc}
 1065              		.section	.text.svcTimerStop,"ax",%progbits
 1066              		.align	1
 1067              		.global	svcTimerStop
 1068              		.thumb
 1069              		.thumb_func
 1071              	svcTimerStop:
 1072              		@ args = 0, pretend = 0, frame = 0
 1073              		@ frame_needed = 0, uses_anonymous_args = 0
 1074 0000 08B5     		push	{r3, lr}
 1075 0002 10F0030F 		tst	r0, #3
 1076 0006 0DD1     		bne	.L148
 1077 0008 78B1     		cbz	r0, .L149
 1078 000a 0379     		ldrb	r3, [r0, #4]	@ zero_extendqisi2
 1079 000c 022B     		cmp	r3, #2
 1080 000e 0FD1     		bne	.L150
 1081 0010 4FF00101 		mov	r1, #1
 1082 0014 0171     		strb	r1, [r0, #4]
 1083 0016 FFF7FEFF 		bl	rt_timer_remove
 1084 001a 0028     		cmp	r0, #0
 1085 001c 14BF     		ite	ne
 1086 001e 8120     		movne	r0, #129
 1087 0020 0020     		moveq	r0, #0
 1088 0022 08BD     		pop	{r3, pc}
 1089              	.L148:
 1090 0024 4FF08000 		mov	r0, #128
 1091 0028 08BD     		pop	{r3, pc}
 1092              	.L149:
 1093 002a 4FF08000 		mov	r0, #128
 1094 002e 08BD     		pop	{r3, pc}
 1095              	.L150:
 1096 0030 4FF08100 		mov	r0, #129
 1097 0034 08BD     		pop	{r3, pc}
 1099              		.section	.text.svcTimerDelete,"ax",%progbits
 1100              		.align	1
 1101              		.global	svcTimerDelete
 1102              		.thumb
 1103              		.thumb_func
 1105              	svcTimerDelete:
 1106              		@ args = 0, pretend = 0, frame = 0
 1107              		@ frame_needed = 0, uses_anonymous_args = 0
 1108 0000 10B5     		push	{r4, lr}
 1109 0002 0446     		mov	r4, r0
 1110 0004 10F0030F 		tst	r0, #3
 1111 0008 0BD1     		bne	.L156
 1112 000a 68B1     		cbz	r0, .L157
 1113 000c 0379     		ldrb	r3, [r0, #4]	@ zero_extendqisi2
 1114 000e 012B     		cmp	r3, #1
 1115 0010 03D0     		beq	.L154
 1116 0012 022B     		cmp	r3, #2
 1117 0014 0BD1     		bne	.L159
 1118 0016 FFF7FEFF 		bl	rt_timer_remove
 1119              	.L154:
 1120 001a 4FF00000 		mov	r0, #0
 1121 001e 2071     		strb	r0, [r4, #4]
 1122 0020 10BD     		pop	{r4, pc}
 1123              	.L156:
 1124 0022 4FF08000 		mov	r0, #128
 1125 0026 10BD     		pop	{r4, pc}
 1126              	.L157:
 1127 0028 4FF08000 		mov	r0, #128
 1128 002c 10BD     		pop	{r4, pc}
 1129              	.L159:
 1130 002e 4FF08100 		mov	r0, #129
 1131 0032 10BD     		pop	{r4, pc}
 1133              		.section	.text.svcTimerCall,"ax",%progbits
 1134              		.align	1
 1135              		.global	svcTimerCall
 1136              		.thumb
 1137              		.thumb_func
 1139              	svcTimerCall:
 1140              		@ args = 0, pretend = 0, frame = 0
 1141              		@ frame_needed = 0, uses_anonymous_args = 0
 1142              		@ link register save eliminated.
 1143 0000 10F0030F 		tst	r0, #3
 1144 0004 04D1     		bne	.L162
 1145 0006 40B1     		cbz	r0, .L163
 1146 0008 0169     		ldr	r1, [r0, #16]
 1147 000a 0A68     		ldr	r2, [r1, #0]
 1148 000c C368     		ldr	r3, [r0, #12]
 1149 000e 08E0     		b	.L161
 1150              	.L162:
 1151 0010 4FF00002 		mov	r2, #0
 1152 0014 4FF00003 		mov	r3, #0
 1153 0018 03E0     		b	.L161
 1154              	.L163:
 1155 001a 4FF00002 		mov	r2, #0
 1156 001e 4FF00003 		mov	r3, #0
 1157              	.L161:
 1158 0022 1046     		mov	r0, r2
 1159 0024 1946     		mov	r1, r3
 1160 0026 7047     		bx	lr
 1162              		.section	.text.sysTimerTick,"ax",%progbits
 1163              		.align	1
 1164              		.global	sysTimerTick
 1165              		.thumb
 1166              		.thumb_func
 1168              	sysTimerTick:
 1169              		@ args = 0, pretend = 0, frame = 0
 1170              		@ frame_needed = 0, uses_anonymous_args = 0
 1171 0000 38B5     		push	{r3, r4, r5, lr}
 1172 0002 40F20003 		movw	r3, #:lower16:os_timer_head
 1173 0006 C0F20003 		movt	r3, #:upper16:os_timer_head
 1174 000a 1C68     		ldr	r4, [r3, #0]
 1175 000c 2CB3     		cbz	r4, .L164
 1176 000e 2089     		ldrh	r0, [r4, #8]
 1177 0010 00F1FF31 		add	r1, r0, #-1
 1178 0014 8AB2     		uxth	r2, r1
 1179 0016 2281     		strh	r2, [r4, #8]	@ movhi
 1180 0018 FAB9     		cbnz	r2, .L164
 1181              	.L169:
 1182 001a 2568     		ldr	r5, [r4, #0]
 1183 001c 40F20003 		movw	r3, #:lower16:os_timer_head
 1184 0020 C0F20003 		movt	r3, #:upper16:os_timer_head
 1185 0024 1D60     		str	r5, [r3, #0]
 1186 0026 40F20000 		movw	r0, #:lower16:osMessageQId_osTimerMessageQ
 1187 002a C0F20000 		movt	r0, #:upper16:osMessageQId_osTimerMessageQ
 1188 002e 0068     		ldr	r0, [r0, #0]
 1189 0030 2146     		mov	r1, r4
 1190 0032 4FF00002 		mov	r2, #0
 1191 0036 FFF7FEFF 		bl	isrMessagePut
 1192 003a 6179     		ldrb	r1, [r4, #5]	@ zero_extendqisi2
 1193 003c 0129     		cmp	r1, #1
 1194 003e 04D1     		bne	.L166
 1195 0040 2046     		mov	r0, r4
 1196 0042 6189     		ldrh	r1, [r4, #10]
 1197 0044 FFF7FEFF 		bl	rt_timer_insert
 1198 0048 02E0     		b	.L167
 1199              	.L166:
 1200 004a 4FF00102 		mov	r2, #1
 1201 004e 2271     		strb	r2, [r4, #4]
 1202              	.L167:
 1203 0050 1DB1     		cbz	r5, .L164
 1204 0052 2C46     		mov	r4, r5
 1205 0054 2B89     		ldrh	r3, [r5, #8]
 1206 0056 002B     		cmp	r3, #0
 1207 0058 DFD0     		beq	.L169
 1208              	.L164:
 1209 005a 38BD     		pop	{r3, r4, r5, pc}
 1211              		.section	.text.sysUserTimerWakeupTime,"ax",%progbits
 1212              		.align	1
 1213              		.global	sysUserTimerWakeupTime
 1214              		.thumb
 1215              		.thumb_func
 1217              	sysUserTimerWakeupTime:
 1218              		@ args = 0, pretend = 0, frame = 0
 1219              		@ frame_needed = 0, uses_anonymous_args = 0
 1220              		@ link register save eliminated.
 1221 0000 40F20003 		movw	r3, #:lower16:os_timer_head
 1222 0004 C0F20003 		movt	r3, #:upper16:os_timer_head
 1223 0008 1868     		ldr	r0, [r3, #0]
 1224 000a 08B1     		cbz	r0, .L173
 1225 000c 0089     		ldrh	r0, [r0, #8]
 1226 000e 7047     		bx	lr
 1227              	.L173:
 1228 0010 4FF6FF70 		movw	r0, #65535
 1229 0014 7047     		bx	lr
 1231              		.section	.text.sysUserTimerUpdate,"ax",%progbits
 1232              		.align	1
 1233              		.global	sysUserTimerUpdate
 1234              		.thumb
 1235              		.thumb_func
 1237              	sysUserTimerUpdate:
 1238              		@ args = 0, pretend = 0, frame = 0
 1239              		@ frame_needed = 0, uses_anonymous_args = 0
 1240 0000 10B5     		push	{r4, lr}
 1241 0002 0446     		mov	r4, r0
 1242 0004 40F20003 		movw	r3, #:lower16:os_timer_head
 1243 0008 C0F20003 		movt	r3, #:upper16:os_timer_head
 1244 000c 1B68     		ldr	r3, [r3, #0]
 1245 000e A3B9     		cbnz	r3, .L175
 1246 0010 10BD     		pop	{r4, pc}
 1247              	.L180:
 1248 0012 1A89     		ldrh	r2, [r3, #8]
 1249 0014 1146     		mov	r1, r2
 1250 0016 A242     		cmp	r2, r4
 1251 0018 0CD8     		bhi	.L177
 1252              	.L181:
 1253 001a 641A     		subs	r4, r4, r1
 1254 001c 4FF00100 		mov	r0, #1
 1255 0020 1881     		strh	r0, [r3, #8]	@ movhi
 1256 0022 FFF7FEFF 		bl	sysTimerTick
 1257 0026 40F20003 		movw	r3, #:lower16:os_timer_head
 1258 002a C0F20003 		movt	r3, #:upper16:os_timer_head
 1259 002e 1B68     		ldr	r3, [r3, #0]
 1260 0030 4BB9     		cbnz	r3, .L178
 1261 0032 10BD     		pop	{r4, pc}
 1262              	.L177:
 1263 0034 121B     		subs	r2, r2, r4
 1264 0036 1A81     		strh	r2, [r3, #8]	@ movhi
 1265 0038 10BD     		pop	{r4, pc}
 1266              	.L175:
 1267 003a 30B1     		cbz	r0, .L174
 1268 003c 1A89     		ldrh	r2, [r3, #8]
 1269 003e 1146     		mov	r1, r2
 1270 0040 9042     		cmp	r0, r2
 1271 0042 EAD2     		bcs	.L181
 1272 0044 F6E7     		b	.L177
 1273              	.L178:
 1274 0046 002C     		cmp	r4, #0
 1275 0048 E3D1     		bne	.L180
 1276              	.L174:
 1277 004a 10BD     		pop	{r4, pc}
 1279              		.section	.text.osTimerCreate,"ax",%progbits
 1280              		.align	1
 1281              		.global	osTimerCreate
 1282              		.thumb
 1283              		.thumb_func
 1285              	osTimerCreate:
 1286              		@ args = 0, pretend = 0, frame = 0
 1287              		@ frame_needed = 0, uses_anonymous_args = 0
 1288 0000 10B5     		push	{r4, lr}
 1289              	@ 383 "C:\DAVE-3.1.10\eclipse\/../CMSIS/Include/core_cmFunc.h" 1
 1290 0002 EFF30584 		MRS r4, ipsr
 1291              	@ 0 "" 2
 1292              		.thumb
 1293 0006 8CB9     		cbnz	r4, .L185
 1294              	@ 356 "C:\DAVE-3.1.10\eclipse\/../CMSIS/Include/core_cmFunc.h" 1
 1295 0008 EFF31484 		MRS r4, control
 1296              	@ 0 "" 2
 1297              		.thumb
 1298 000c 14F0010F 		tst	r4, #1
 1299 0010 08D1     		bne	.L184
 1300 0012 40F20004 		movw	r4, #:lower16:os_running
 1301 0016 C0F20004 		movt	r4, #:upper16:os_running
 1302 001a 2478     		ldrb	r4, [r4, #0]	@ zero_extendqisi2
 1303 001c 14B9     		cbnz	r4, .L184
 1304 001e FFF7FEFF 		bl	svcTimerCreate
 1305 0022 10BD     		pop	{r4, pc}
 1306              	.L184:
 1307              	@ 959 "../Dave/Generated/src/RTOS001/SRC/rt_CMSIS.c" 1
 1308 0024 DFF80CC0 		ldr r12,=svcTimerCreate
 1309 0028 00DF     		svc 0
 1310              	@ 0 "" 2
 1311              		.thumb
 1312 002a 10BD     		pop	{r4, pc}
 1313              	.L185:
 1314 002c 4FF00000 		mov	r0, #0
 1315 0030 10BD     		pop	{r4, pc}
 1317 0032 0000     		.section	.text.osTimerStart,"ax",%progbits
 1318              		.align	1
 1319              		.global	osTimerStart
 1320              		.thumb
 1321              		.thumb_func
 1323              	osTimerStart:
 1324              		@ args = 0, pretend = 0, frame = 0
 1325              		@ frame_needed = 0, uses_anonymous_args = 0
 1326 0000 10B5     		push	{r4, lr}
 1327              	@ 383 "C:\DAVE-3.1.10\eclipse\/../CMSIS/Include/core_cmFunc.h" 1
 1328 0002 EFF30584 		MRS r4, ipsr
 1329              	@ 0 "" 2
 1330              		.thumb
 1331 0006 1CB9     		cbnz	r4, .L188
 1332              	@ 960 "../Dave/Generated/src/RTOS001/SRC/rt_CMSIS.c" 1
 1333 0008 DFF80CC0 		ldr r12,=svcTimerStart
 1334 000c 00DF     		svc 0
 1335              	@ 0 "" 2
 1336              		.thumb
 1337 000e 10BD     		pop	{r4, pc}
 1338              	.L188:
 1339 0010 4FF08200 		mov	r0, #130
 1340 0014 10BD     		pop	{r4, pc}
 1342 0016 0000     		.section	.text.osTimerStop,"ax",%progbits
 1343              		.align	1
 1344              		.global	osTimerStop
 1345              		.thumb
 1346              		.thumb_func
 1348              	osTimerStop:
 1349              		@ args = 0, pretend = 0, frame = 0
 1350              		@ frame_needed = 0, uses_anonymous_args = 0
 1351 0000 10B5     		push	{r4, lr}
 1352              	@ 383 "C:\DAVE-3.1.10\eclipse\/../CMSIS/Include/core_cmFunc.h" 1
 1353 0002 EFF30584 		MRS r4, ipsr
 1354              	@ 0 "" 2
 1355              		.thumb
 1356 0006 1CB9     		cbnz	r4, .L191
 1357              	@ 961 "../Dave/Generated/src/RTOS001/SRC/rt_CMSIS.c" 1
 1358 0008 DFF80CC0 		ldr r12,=svcTimerStop
 1359 000c 00DF     		svc 0
 1360              	@ 0 "" 2
 1361              		.thumb
 1362 000e 10BD     		pop	{r4, pc}
 1363              	.L191:
 1364 0010 4FF08200 		mov	r0, #130
 1365 0014 10BD     		pop	{r4, pc}
 1367 0016 0000     		.section	.text.osTimerDelete,"ax",%progbits
 1368              		.align	1
 1369              		.global	osTimerDelete
 1370              		.thumb
 1371              		.thumb_func
 1373              	osTimerDelete:
 1374              		@ args = 0, pretend = 0, frame = 0
 1375              		@ frame_needed = 0, uses_anonymous_args = 0
 1376 0000 10B5     		push	{r4, lr}
 1377              	@ 383 "C:\DAVE-3.1.10\eclipse\/../CMSIS/Include/core_cmFunc.h" 1
 1378 0002 EFF30584 		MRS r4, ipsr
 1379              	@ 0 "" 2
 1380              		.thumb
 1381 0006 1CB9     		cbnz	r4, .L194
 1382              	@ 962 "../Dave/Generated/src/RTOS001/SRC/rt_CMSIS.c" 1
 1383 0008 DFF80CC0 		ldr r12,=svcTimerDelete
 1384 000c 00DF     		svc 0
 1385              	@ 0 "" 2
 1386              		.thumb
 1387 000e 10BD     		pop	{r4, pc}
 1388              	.L194:
 1389 0010 4FF08200 		mov	r0, #130
 1390 0014 10BD     		pop	{r4, pc}
 1392 0016 0000     		.section	.text.osTimerCall,"ax",%progbits
 1393              		.align	1
 1394              		.global	osTimerCall
 1395              		.thumb
 1396              		.thumb_func
 1398              	osTimerCall:
 1399              		@ args = 0, pretend = 0, frame = 0
 1400              		@ frame_needed = 0, uses_anonymous_args = 0
 1401 0000 10B5     		push	{r4, lr}
 1402 0002 0446     		mov	r4, r0
 1403 0004 0846     		mov	r0, r1
 1404              	@ 963 "../Dave/Generated/src/RTOS001/SRC/rt_CMSIS.c" 1
 1405 0006 DFF80CC0 		ldr r12,=svcTimerCall
 1406 000a 00DF     		svc 0
 1407              	@ 0 "" 2
 1408              		.thumb
 1409 000c 2060     		str	r0, [r4, #0]
 1410 000e 6160     		str	r1, [r4, #4]
 1411 0010 2046     		mov	r0, r4
 1412 0012 10BD     		pop	{r4, pc}
 1414              		.section	.text.svcSignalSet,"ax",%progbits
 1415              		.align	1
 1416              		.global	svcSignalSet
 1417              		.thumb
 1418              		.thumb_func
 1420              	svcSignalSet:
 1421              		@ args = 0, pretend = 0, frame = 0
 1422              		@ frame_needed = 0, uses_anonymous_args = 0
 1423 0000 38B5     		push	{r3, r4, r5, lr}
 1424 0002 0C46     		mov	r4, r1
 1425 0004 FFF7FEFF 		bl	rt_tid2ptcb
 1426 0008 0346     		mov	r3, r0
 1427 000a 38B1     		cbz	r0, .L198
 1428 000c 220C     		lsrs	r2, r4, #16
 1429 000e 08D1     		bne	.L199
 1430 0010 058B     		ldrh	r5, [r0, #24]
 1431 0012 A0B2     		uxth	r0, r4
 1432 0014 D978     		ldrb	r1, [r3, #3]	@ zero_extendqisi2
 1433 0016 FFF7FEFF 		bl	rt_evt_set
 1434 001a 04E0     		b	.L197
 1435              	.L198:
 1436 001c 4FF00045 		mov	r5, #-2147483648
 1437 0020 01E0     		b	.L197
 1438              	.L199:
 1439 0022 4FF00045 		mov	r5, #-2147483648
 1440              	.L197:
 1441 0026 2846     		mov	r0, r5
 1442 0028 38BD     		pop	{r3, r4, r5, pc}
 1444              		.section	.text.svcSignalClear,"ax",%progbits
 1445              		.align	1
 1446              		.global	svcSignalClear
 1447              		.thumb
 1448              		.thumb_func
 1450              	svcSignalClear:
 1451              		@ args = 0, pretend = 0, frame = 0
 1452              		@ frame_needed = 0, uses_anonymous_args = 0
 1453 0000 38B5     		push	{r3, r4, r5, lr}
 1454 0002 0C46     		mov	r4, r1
 1455 0004 FFF7FEFF 		bl	rt_tid2ptcb
 1456 0008 0346     		mov	r3, r0
 1457 000a 38B1     		cbz	r0, .L202
 1458 000c 220C     		lsrs	r2, r4, #16
 1459 000e 08D1     		bne	.L203
 1460 0010 058B     		ldrh	r5, [r0, #24]
 1461 0012 A0B2     		uxth	r0, r4
 1462 0014 D978     		ldrb	r1, [r3, #3]	@ zero_extendqisi2
 1463 0016 FFF7FEFF 		bl	rt_evt_clr
 1464 001a 04E0     		b	.L201
 1465              	.L202:
 1466 001c 4FF00045 		mov	r5, #-2147483648
 1467 0020 01E0     		b	.L201
 1468              	.L203:
 1469 0022 4FF00045 		mov	r5, #-2147483648
 1470              	.L201:
 1471 0026 2846     		mov	r0, r5
 1472 0028 38BD     		pop	{r3, r4, r5, pc}
 1474              		.section	.text.svcSignalWait,"ax",%progbits
 1475              		.align	1
 1476              		.global	svcSignalWait
 1477              		.thumb
 1478              		.thumb_func
 1480              	svcSignalWait:
 1481              		@ args = 0, pretend = 0, frame = 0
 1482              		@ frame_needed = 0, uses_anonymous_args = 0
 1483 0000 70B5     		push	{r4, r5, r6, lr}
 1484 0002 0446     		mov	r4, r0
 1485 0004 0D46     		mov	r5, r1
 1486 0006 030C     		lsrs	r3, r0, #16
 1487 0008 06D0     		beq	.L205
 1488 000a 4FF00001 		mov	r1, #0
 1489 000e 0A46     		mov	r2, r1
 1490 0010 0B46     		mov	r3, r1
 1491 0012 4FF08600 		mov	r0, #134
 1492 0016 70BD     		pop	{r4, r5, r6, pc}
 1493              	.L205:
 1494 0018 58B1     		cbz	r0, .L207
 1495 001a 0846     		mov	r0, r1
 1496 001c FFF7FEFF 		bl	rt_ms2tick
 1497 0020 81B2     		uxth	r1, r0
 1498 0022 A0B2     		uxth	r0, r4
 1499 0024 4FF00102 		mov	r2, #1
 1500 0028 FFF7FEFF 		bl	rt_evt_wait
 1501 002c 0228     		cmp	r0, #2
 1502 002e 15D1     		bne	.L209
 1503 0030 1AE0     		b	.L210
 1504              	.L207:
 1505 0032 0846     		mov	r0, r1
 1506 0034 FFF7FEFF 		bl	rt_ms2tick
 1507 0038 81B2     		uxth	r1, r0
 1508 003a 4FF6FF70 		movw	r0, #65535
 1509 003e 4FF00002 		mov	r2, #0
 1510 0042 FFF7FEFF 		bl	rt_evt_wait
 1511 0046 0228     		cmp	r0, #2
 1512 0048 08D1     		bne	.L209
 1513 004a 40F20003 		movw	r3, #:lower16:os_tsk
 1514 004e C0F20003 		movt	r3, #:upper16:os_tsk
 1515 0052 1868     		ldr	r0, [r3, #0]
 1516 0054 418B     		ldrh	r1, [r0, #26]
 1517 0056 4FF00800 		mov	r0, #8
 1518 005a 0CE0     		b	.L208
 1519              	.L209:
 1520 005c 45B1     		cbz	r5, .L211
 1521 005e 4FF00001 		mov	r1, #0
 1522 0062 4FF04000 		mov	r0, #64
 1523 0066 06E0     		b	.L208
 1524              	.L210:
 1525 0068 2146     		mov	r1, r4
 1526 006a 4FF00800 		mov	r0, #8
 1527 006e 02E0     		b	.L208
 1528              	.L211:
 1529 0070 4FF00001 		mov	r1, #0
 1530 0074 0846     		mov	r0, r1
 1531              	.L208:
 1532 0076 4FF00003 		mov	r3, #0
 1533 007a 1A46     		mov	r2, r3
 1534 007c 70BD     		pop	{r4, r5, r6, pc}
 1536              		.section	.text.osSignalSet,"ax",%progbits
 1537              		.align	1
 1538              		.global	osSignalSet
 1539              		.thumb
 1540              		.thumb_func
 1542              	osSignalSet:
 1543              		@ args = 0, pretend = 0, frame = 0
 1544              		@ frame_needed = 0, uses_anonymous_args = 0
 1545 0000 38B5     		push	{r3, r4, r5, lr}
 1546 0002 0C46     		mov	r4, r1
 1547              	@ 383 "C:\DAVE-3.1.10\eclipse\/../CMSIS/Include/core_cmFunc.h" 1
 1548 0004 EFF30581 		MRS r1, ipsr
 1549              	@ 0 "" 2
 1550              		.thumb
 1551 0008 89B1     		cbz	r1, .L213
 1552 000a FFF7FEFF 		bl	rt_tid2ptcb
 1553 000e 0346     		mov	r3, r0
 1554 0010 38B1     		cbz	r0, .L216
 1555 0012 220C     		lsrs	r2, r4, #16
 1556 0014 08D1     		bne	.L217
 1557 0016 058B     		ldrh	r5, [r0, #24]
 1558 0018 A0B2     		uxth	r0, r4
 1559 001a D978     		ldrb	r1, [r3, #3]	@ zero_extendqisi2
 1560 001c FFF7FEFF 		bl	isr_evt_set
 1561 0020 0AE0     		b	.L215
 1562              	.L216:
 1563 0022 4FF00045 		mov	r5, #-2147483648
 1564 0026 07E0     		b	.L215
 1565              	.L217:
 1566 0028 4FF00045 		mov	r5, #-2147483648
 1567 002c 04E0     		b	.L215
 1568              	.L213:
 1569 002e 2146     		mov	r1, r4
 1570              	@ 1200 "../Dave/Generated/src/RTOS001/SRC/rt_CMSIS.c" 1
 1571 0030 DFF808C0 		ldr r12,=svcSignalSet
 1572 0034 00DF     		svc 0
 1573              	@ 0 "" 2
 1574              		.thumb
 1575 0036 0546     		mov	r5, r0
 1576              	.L215:
 1577 0038 2846     		mov	r0, r5
 1578 003a 38BD     		pop	{r3, r4, r5, pc}
 1580              		.section	.text.osSignalClear,"ax",%progbits
 1581              		.align	1
 1582              		.global	osSignalClear
 1583              		.thumb
 1584              		.thumb_func
 1586              	osSignalClear:
 1587              		@ args = 0, pretend = 0, frame = 0
 1588              		@ frame_needed = 0, uses_anonymous_args = 0
 1589 0000 10B5     		push	{r4, lr}
 1590              	@ 383 "C:\DAVE-3.1.10\eclipse\/../CMSIS/Include/core_cmFunc.h" 1
 1591 0002 EFF30584 		MRS r4, ipsr
 1592              	@ 0 "" 2
 1593              		.thumb
 1594 0006 1CB9     		cbnz	r4, .L220
 1595              	@ 1201 "../Dave/Generated/src/RTOS001/SRC/rt_CMSIS.c" 1
 1596 0008 DFF80CC0 		ldr r12,=svcSignalClear
 1597 000c 00DF     		svc 0
 1598              	@ 0 "" 2
 1599              		.thumb
 1600 000e 10BD     		pop	{r4, pc}
 1601              	.L220:
 1602 0010 4FF08200 		mov	r0, #130
 1603 0014 10BD     		pop	{r4, pc}
 1605 0016 0000     		.section	.text.osSignalWait,"ax",%progbits
 1606              		.align	1
 1607              		.global	osSignalWait
 1608              		.thumb
 1609              		.thumb_func
 1611              	osSignalWait:
 1612              		@ args = 0, pretend = 0, frame = 0
 1613              		@ frame_needed = 0, uses_anonymous_args = 0
 1614 0000 70B5     		push	{r4, r5, r6, lr}
 1615 0002 0446     		mov	r4, r0
 1616 0004 1646     		mov	r6, r2
 1617              	@ 383 "C:\DAVE-3.1.10\eclipse\/../CMSIS/Include/core_cmFunc.h" 1
 1618 0006 EFF30585 		MRS r5, ipsr
 1619              	@ 0 "" 2
 1620              		.thumb
 1621 000a 1DB1     		cbz	r5, .L222
 1622 000c 4FF08203 		mov	r3, #130
 1623 0010 0360     		str	r3, [r0, #0]
 1624 0012 07E0     		b	.L221
 1625              	.L222:
 1626 0014 0846     		mov	r0, r1
 1627 0016 1146     		mov	r1, r2
 1628              	@ 1202 "../Dave/Generated/src/RTOS001/SRC/rt_CMSIS.c" 1
 1629 0018 DFF80CC0 		ldr r12,=svcSignalWait
 1630 001c 00DF     		svc 0
 1631              	@ 0 "" 2
 1632              		.thumb
 1633 001e 2060     		str	r0, [r4, #0]
 1634 0020 6160     		str	r1, [r4, #4]
 1635 0022 A260     		str	r2, [r4, #8]
 1636              	.L221:
 1637 0024 2046     		mov	r0, r4
 1638 0026 70BD     		pop	{r4, r5, r6, pc}
 1640              		.section	.text.svcMutexCreate,"ax",%progbits
 1641              		.align	1
 1642              		.global	svcMutexCreate
 1643              		.thumb
 1644              		.thumb_func
 1646              	svcMutexCreate:
 1647              		@ args = 0, pretend = 0, frame = 0
 1648              		@ frame_needed = 0, uses_anonymous_args = 0
 1649 0000 10B5     		push	{r4, lr}
 1650 0002 38B1     		cbz	r0, .L226
 1651 0004 0468     		ldr	r4, [r0, #0]
 1652 0006 54B1     		cbz	r4, .L225
 1653 0008 2078     		ldrb	r0, [r4, #0]	@ zero_extendqisi2
 1654 000a 30B9     		cbnz	r0, .L227
 1655 000c 2046     		mov	r0, r4
 1656 000e FFF7FEFF 		bl	rt_mut_init
 1657 0012 04E0     		b	.L225
 1658              	.L226:
 1659 0014 4FF00004 		mov	r4, #0
 1660 0018 01E0     		b	.L225
 1661              	.L227:
 1662 001a 4FF00004 		mov	r4, #0
 1663              	.L225:
 1664 001e 2046     		mov	r0, r4
 1665 0020 10BD     		pop	{r4, pc}
 1667              		.section	.text.svcMutexWait,"ax",%progbits
 1668              		.align	1
 1669              		.global	svcMutexWait
 1670              		.thumb
 1671              		.thumb_func
 1673              	svcMutexWait:
 1674              		@ args = 0, pretend = 0, frame = 0
 1675              		@ frame_needed = 0, uses_anonymous_args = 0
 1676 0000 38B5     		push	{r3, r4, r5, lr}
 1677 0002 0446     		mov	r4, r0
 1678 0004 0D46     		mov	r5, r1
 1679 0006 10F0030F 		tst	r0, #3
 1680 000a 11D1     		bne	.L230
 1681 000c 98B1     		cbz	r0, .L231
 1682 000e 0378     		ldrb	r3, [r0, #0]	@ zero_extendqisi2
 1683 0010 032B     		cmp	r3, #3
 1684 0012 13D1     		bne	.L232
 1685 0014 0846     		mov	r0, r1
 1686 0016 FFF7FEFF 		bl	rt_ms2tick
 1687 001a 81B2     		uxth	r1, r0
 1688 001c 2046     		mov	r0, r4
 1689 001e FFF7FEFF 		bl	rt_mut_wait
 1690 0022 0128     		cmp	r0, #1
 1691 0024 0DD1     		bne	.L233
 1692 0026 002D     		cmp	r5, #0
 1693 0028 0CBF     		ite	eq
 1694 002a 8120     		moveq	r0, #129
 1695 002c C120     		movne	r0, #193
 1696 002e 38BD     		pop	{r3, r4, r5, pc}
 1697              	.L230:
 1698 0030 4FF08000 		mov	r0, #128
 1699 0034 38BD     		pop	{r3, r4, r5, pc}
 1700              	.L231:
 1701 0036 4FF08000 		mov	r0, #128
 1702 003a 38BD     		pop	{r3, r4, r5, pc}
 1703              	.L232:
 1704 003c 4FF08000 		mov	r0, #128
 1705 0040 38BD     		pop	{r3, r4, r5, pc}
 1706              	.L233:
 1707 0042 4FF00000 		mov	r0, #0
 1708 0046 38BD     		pop	{r3, r4, r5, pc}
 1710              		.section	.text.svcMutexRelease,"ax",%progbits
 1711              		.align	1
 1712              		.global	svcMutexRelease
 1713              		.thumb
 1714              		.thumb_func
 1716              	svcMutexRelease:
 1717              		@ args = 0, pretend = 0, frame = 0
 1718              		@ frame_needed = 0, uses_anonymous_args = 0
 1719 0000 08B5     		push	{r3, lr}
 1720 0002 10F0030F 		tst	r0, #3
 1721 0006 0AD1     		bne	.L237
 1722 0008 60B1     		cbz	r0, .L238
 1723 000a 0378     		ldrb	r3, [r0, #0]	@ zero_extendqisi2
 1724 000c 032B     		cmp	r3, #3
 1725 000e 0CD1     		bne	.L239
 1726 0010 FFF7FEFF 		bl	rt_mut_release
 1727 0014 FF28     		cmp	r0, #255
 1728 0016 0CBF     		ite	eq
 1729 0018 8120     		moveq	r0, #129
 1730 001a 0020     		movne	r0, #0
 1731 001c 08BD     		pop	{r3, pc}
 1732              	.L237:
 1733 001e 4FF08000 		mov	r0, #128
 1734 0022 08BD     		pop	{r3, pc}
 1735              	.L238:
 1736 0024 4FF08000 		mov	r0, #128
 1737 0028 08BD     		pop	{r3, pc}
 1738              	.L239:
 1739 002a 4FF08000 		mov	r0, #128
 1740 002e 08BD     		pop	{r3, pc}
 1742              		.section	.text.svcMutexDelete,"ax",%progbits
 1743              		.align	1
 1744              		.global	svcMutexDelete
 1745              		.thumb
 1746              		.thumb_func
 1748              	svcMutexDelete:
 1749              		@ args = 0, pretend = 0, frame = 0
 1750              		@ frame_needed = 0, uses_anonymous_args = 0
 1751 0000 08B5     		push	{r3, lr}
 1752 0002 10F0030F 		tst	r0, #3
 1753 0006 08D1     		bne	.L243
 1754 0008 50B1     		cbz	r0, .L244
 1755 000a 0378     		ldrb	r3, [r0, #0]	@ zero_extendqisi2
 1756 000c 032B     		cmp	r3, #3
 1757 000e 0AD1     		bne	.L245
 1758 0010 FFF7FEFF 		bl	rt_mut_delete
 1759 0014 4FF00000 		mov	r0, #0
 1760 0018 08BD     		pop	{r3, pc}
 1761              	.L243:
 1762 001a 4FF08000 		mov	r0, #128
 1763 001e 08BD     		pop	{r3, pc}
 1764              	.L244:
 1765 0020 4FF08000 		mov	r0, #128
 1766 0024 08BD     		pop	{r3, pc}
 1767              	.L245:
 1768 0026 4FF08000 		mov	r0, #128
 1769 002a 08BD     		pop	{r3, pc}
 1771              		.section	.text.osMutexCreate,"ax",%progbits
 1772              		.align	1
 1773              		.global	osMutexCreate
 1774              		.thumb
 1775              		.thumb_func
 1777              	osMutexCreate:
 1778              		@ args = 0, pretend = 0, frame = 0
 1779              		@ frame_needed = 0, uses_anonymous_args = 0
 1780 0000 10B5     		push	{r4, lr}
 1781              	@ 383 "C:\DAVE-3.1.10\eclipse\/../CMSIS/Include/core_cmFunc.h" 1
 1782 0002 EFF30584 		MRS r4, ipsr
 1783              	@ 0 "" 2
 1784              		.thumb
 1785 0006 8CB9     		cbnz	r4, .L249
 1786              	@ 356 "C:\DAVE-3.1.10\eclipse\/../CMSIS/Include/core_cmFunc.h" 1
 1787 0008 EFF31484 		MRS r4, control
 1788              	@ 0 "" 2
 1789              		.thumb
 1790 000c 14F0010F 		tst	r4, #1
 1791 0010 08D1     		bne	.L248
 1792 0012 40F20004 		movw	r4, #:lower16:os_running
 1793 0016 C0F20004 		movt	r4, #:upper16:os_running
 1794 001a 2478     		ldrb	r4, [r4, #0]	@ zero_extendqisi2
 1795 001c 14B9     		cbnz	r4, .L248
 1796 001e FFF7FEFF 		bl	svcMutexCreate
 1797 0022 10BD     		pop	{r4, pc}
 1798              	.L248:
 1799              	@ 1320 "../Dave/Generated/src/RTOS001/SRC/rt_CMSIS.c" 1
 1800 0024 DFF80CC0 		ldr r12,=svcMutexCreate
 1801 0028 00DF     		svc 0
 1802              	@ 0 "" 2
 1803              		.thumb
 1804 002a 10BD     		pop	{r4, pc}
 1805              	.L249:
 1806 002c 4FF00000 		mov	r0, #0
 1807 0030 10BD     		pop	{r4, pc}
 1809 0032 0000     		.section	.text.osMutexWait,"ax",%progbits
 1810              		.align	1
 1811              		.global	osMutexWait
 1812              		.thumb
 1813              		.thumb_func
 1815              	osMutexWait:
 1816              		@ args = 0, pretend = 0, frame = 0
 1817              		@ frame_needed = 0, uses_anonymous_args = 0
 1818 0000 10B5     		push	{r4, lr}
 1819              	@ 383 "C:\DAVE-3.1.10\eclipse\/../CMSIS/Include/core_cmFunc.h" 1
 1820 0002 EFF30584 		MRS r4, ipsr
 1821              	@ 0 "" 2
 1822              		.thumb
 1823 0006 1CB9     		cbnz	r4, .L252
 1824              	@ 1321 "../Dave/Generated/src/RTOS001/SRC/rt_CMSIS.c" 1
 1825 0008 DFF80CC0 		ldr r12,=svcMutexWait
 1826 000c 00DF     		svc 0
 1827              	@ 0 "" 2
 1828              		.thumb
 1829 000e 10BD     		pop	{r4, pc}
 1830              	.L252:
 1831 0010 4FF08200 		mov	r0, #130
 1832 0014 10BD     		pop	{r4, pc}
 1834 0016 0000     		.section	.text.osMutexRelease,"ax",%progbits
 1835              		.align	1
 1836              		.global	osMutexRelease
 1837              		.thumb
 1838              		.thumb_func
 1840              	osMutexRelease:
 1841              		@ args = 0, pretend = 0, frame = 0
 1842              		@ frame_needed = 0, uses_anonymous_args = 0
 1843 0000 10B5     		push	{r4, lr}
 1844              	@ 383 "C:\DAVE-3.1.10\eclipse\/../CMSIS/Include/core_cmFunc.h" 1
 1845 0002 EFF30584 		MRS r4, ipsr
 1846              	@ 0 "" 2
 1847              		.thumb
 1848 0006 1CB9     		cbnz	r4, .L255
 1849              	@ 1322 "../Dave/Generated/src/RTOS001/SRC/rt_CMSIS.c" 1
 1850 0008 DFF80CC0 		ldr r12,=svcMutexRelease
 1851 000c 00DF     		svc 0
 1852              	@ 0 "" 2
 1853              		.thumb
 1854 000e 10BD     		pop	{r4, pc}
 1855              	.L255:
 1856 0010 4FF08200 		mov	r0, #130
 1857 0014 10BD     		pop	{r4, pc}
 1859 0016 0000     		.section	.text.osMutexDelete,"ax",%progbits
 1860              		.align	1
 1861              		.global	osMutexDelete
 1862              		.thumb
 1863              		.thumb_func
 1865              	osMutexDelete:
 1866              		@ args = 0, pretend = 0, frame = 0
 1867              		@ frame_needed = 0, uses_anonymous_args = 0
 1868 0000 10B5     		push	{r4, lr}
 1869              	@ 383 "C:\DAVE-3.1.10\eclipse\/../CMSIS/Include/core_cmFunc.h" 1
 1870 0002 EFF30584 		MRS r4, ipsr
 1871              	@ 0 "" 2
 1872              		.thumb
 1873 0006 1CB9     		cbnz	r4, .L258
 1874              	@ 1323 "../Dave/Generated/src/RTOS001/SRC/rt_CMSIS.c" 1
 1875 0008 DFF80CC0 		ldr r12,=svcMutexDelete
 1876 000c 00DF     		svc 0
 1877              	@ 0 "" 2
 1878              		.thumb
 1879 000e 10BD     		pop	{r4, pc}
 1880              	.L258:
 1881 0010 4FF08200 		mov	r0, #130
 1882 0014 10BD     		pop	{r4, pc}
 1884 0016 0000     		.section	.text.svcSemaphoreCreate,"ax",%progbits
 1885              		.align	1
 1886              		.global	svcSemaphoreCreate
 1887              		.thumb
 1888              		.thumb_func
 1890              	svcSemaphoreCreate:
 1891              		@ args = 0, pretend = 0, frame = 0
 1892              		@ frame_needed = 0, uses_anonymous_args = 0
 1893 0000 10B5     		push	{r4, lr}
 1894 0002 58B1     		cbz	r0, .L261
 1895 0004 0468     		ldr	r4, [r0, #0]
 1896 0006 8CB1     		cbz	r4, .L260
 1897 0008 2078     		ldrb	r0, [r4, #0]	@ zero_extendqisi2
 1898 000a 50B9     		cbnz	r0, .L262
 1899 000c B1F5803F 		cmp	r1, #65536
 1900 0010 0ADA     		bge	.L263
 1901 0012 2046     		mov	r0, r4
 1902 0014 89B2     		uxth	r1, r1
 1903 0016 FFF7FEFF 		bl	rt_sem_init
 1904 001a 07E0     		b	.L260
 1905              	.L261:
 1906 001c 4FF00004 		mov	r4, #0
 1907 0020 04E0     		b	.L260
 1908              	.L262:
 1909 0022 4FF00004 		mov	r4, #0
 1910 0026 01E0     		b	.L260
 1911              	.L263:
 1912 0028 4FF00004 		mov	r4, #0
 1913              	.L260:
 1914 002c 2046     		mov	r0, r4
 1915 002e 10BD     		pop	{r4, pc}
 1917              		.section	.text.svcSemaphoreWait,"ax",%progbits
 1918              		.align	1
 1919              		.global	svcSemaphoreWait
 1920              		.thumb
 1921              		.thumb_func
 1923              	svcSemaphoreWait:
 1924              		@ args = 0, pretend = 0, frame = 0
 1925              		@ frame_needed = 0, uses_anonymous_args = 0
 1926 0000 10B5     		push	{r4, lr}
 1927 0002 0446     		mov	r4, r0
 1928 0004 10F0030F 		tst	r0, #3
 1929 0008 10D1     		bne	.L266
 1930 000a 90B1     		cbz	r0, .L267
 1931 000c 0378     		ldrb	r3, [r0, #0]	@ zero_extendqisi2
 1932 000e 022B     		cmp	r3, #2
 1933 0010 12D1     		bne	.L268
 1934 0012 0846     		mov	r0, r1
 1935 0014 FFF7FEFF 		bl	rt_ms2tick
 1936 0018 81B2     		uxth	r1, r0
 1937 001a 2046     		mov	r0, r4
 1938 001c FFF7FEFF 		bl	rt_sem_wait
 1939 0020 0128     		cmp	r0, #1
 1940 0022 0CD0     		beq	.L269
 1941 0024 6088     		ldrh	r0, [r4, #2]
 1942 0026 00F10100 		add	r0, r0, #1
 1943 002a 10BD     		pop	{r4, pc}
 1944              	.L266:
 1945 002c 4FF0FF30 		mov	r0, #-1
 1946 0030 10BD     		pop	{r4, pc}
 1947              	.L267:
 1948 0032 4FF0FF30 		mov	r0, #-1
 1949 0036 10BD     		pop	{r4, pc}
 1950              	.L268:
 1951 0038 4FF0FF30 		mov	r0, #-1
 1952 003c 10BD     		pop	{r4, pc}
 1953              	.L269:
 1954 003e 4FF00000 		mov	r0, #0
 1955 0042 10BD     		pop	{r4, pc}
 1957              		.section	.text.svcSemaphoreRelease,"ax",%progbits
 1958              		.align	1
 1959              		.global	svcSemaphoreRelease
 1960              		.thumb
 1961              		.thumb_func
 1963              	svcSemaphoreRelease:
 1964              		@ args = 0, pretend = 0, frame = 0
 1965              		@ frame_needed = 0, uses_anonymous_args = 0
 1966 0000 08B5     		push	{r3, lr}
 1967 0002 10F0030F 		tst	r0, #3
 1968 0006 0DD1     		bne	.L272
 1969 0008 78B1     		cbz	r0, .L273
 1970 000a 0378     		ldrb	r3, [r0, #0]	@ zero_extendqisi2
 1971 000c 022B     		cmp	r3, #2
 1972 000e 0FD1     		bne	.L274
 1973 0010 4288     		ldrh	r2, [r0, #2]
 1974 0012 4FF6FF71 		movw	r1, #65535
 1975 0016 8A42     		cmp	r2, r1
 1976 0018 0DD0     		beq	.L275
 1977 001a FFF7FEFF 		bl	rt_sem_send
 1978 001e 4FF00000 		mov	r0, #0
 1979 0022 08BD     		pop	{r3, pc}
 1980              	.L272:
 1981 0024 4FF08000 		mov	r0, #128
 1982 0028 08BD     		pop	{r3, pc}
 1983              	.L273:
 1984 002a 4FF08000 		mov	r0, #128
 1985 002e 08BD     		pop	{r3, pc}
 1986              	.L274:
 1987 0030 4FF08000 		mov	r0, #128
 1988 0034 08BD     		pop	{r3, pc}
 1989              	.L275:
 1990 0036 4FF08100 		mov	r0, #129
 1991 003a 08BD     		pop	{r3, pc}
 1993              		.section	.text.svcSemaphoreDelete,"ax",%progbits
 1994              		.align	1
 1995              		.global	svcSemaphoreDelete
 1996              		.thumb
 1997              		.thumb_func
 1999              	svcSemaphoreDelete:
 2000              		@ args = 0, pretend = 0, frame = 0
 2001              		@ frame_needed = 0, uses_anonymous_args = 0
 2002 0000 08B5     		push	{r3, lr}
 2003 0002 10F0030F 		tst	r0, #3
 2004 0006 08D1     		bne	.L278
 2005 0008 50B1     		cbz	r0, .L279
 2006 000a 0378     		ldrb	r3, [r0, #0]	@ zero_extendqisi2
 2007 000c 022B     		cmp	r3, #2
 2008 000e 0AD1     		bne	.L280
 2009 0010 FFF7FEFF 		bl	rt_sem_delete
 2010 0014 4FF00000 		mov	r0, #0
 2011 0018 08BD     		pop	{r3, pc}
 2012              	.L278:
 2013 001a 4FF08000 		mov	r0, #128
 2014 001e 08BD     		pop	{r3, pc}
 2015              	.L279:
 2016 0020 4FF08000 		mov	r0, #128
 2017 0024 08BD     		pop	{r3, pc}
 2018              	.L280:
 2019 0026 4FF08000 		mov	r0, #128
 2020 002a 08BD     		pop	{r3, pc}
 2022              		.section	.text.osSemaphoreCreate,"ax",%progbits
 2023              		.align	1
 2024              		.global	osSemaphoreCreate
 2025              		.thumb
 2026              		.thumb_func
 2028              	osSemaphoreCreate:
 2029              		@ args = 0, pretend = 0, frame = 0
 2030              		@ frame_needed = 0, uses_anonymous_args = 0
 2031 0000 10B5     		push	{r4, lr}
 2032              	@ 383 "C:\DAVE-3.1.10\eclipse\/../CMSIS/Include/core_cmFunc.h" 1
 2033 0002 EFF30584 		MRS r4, ipsr
 2034              	@ 0 "" 2
 2035              		.thumb
 2036 0006 8CB9     		cbnz	r4, .L284
 2037              	@ 356 "C:\DAVE-3.1.10\eclipse\/../CMSIS/Include/core_cmFunc.h" 1
 2038 0008 EFF31484 		MRS r4, control
 2039              	@ 0 "" 2
 2040              		.thumb
 2041 000c 14F0010F 		tst	r4, #1
 2042 0010 08D1     		bne	.L283
 2043 0012 40F20004 		movw	r4, #:lower16:os_running
 2044 0016 C0F20004 		movt	r4, #:upper16:os_running
 2045 001a 2478     		ldrb	r4, [r4, #0]	@ zero_extendqisi2
 2046 001c 14B9     		cbnz	r4, .L283
 2047 001e FFF7FEFF 		bl	svcSemaphoreCreate
 2048 0022 10BD     		pop	{r4, pc}
 2049              	.L283:
 2050              	@ 1438 "../Dave/Generated/src/RTOS001/SRC/rt_CMSIS.c" 1
 2051 0024 DFF80CC0 		ldr r12,=svcSemaphoreCreate
 2052 0028 00DF     		svc 0
 2053              	@ 0 "" 2
 2054              		.thumb
 2055 002a 10BD     		pop	{r4, pc}
 2056              	.L284:
 2057 002c 4FF00000 		mov	r0, #0
 2058 0030 10BD     		pop	{r4, pc}
 2060 0032 0000     		.section	.text.osSemaphoreWait,"ax",%progbits
 2061              		.align	1
 2062              		.global	osSemaphoreWait
 2063              		.thumb
 2064              		.thumb_func
 2066              	osSemaphoreWait:
 2067              		@ args = 0, pretend = 0, frame = 0
 2068              		@ frame_needed = 0, uses_anonymous_args = 0
 2069 0000 10B5     		push	{r4, lr}
 2070              	@ 383 "C:\DAVE-3.1.10\eclipse\/../CMSIS/Include/core_cmFunc.h" 1
 2071 0002 EFF30584 		MRS r4, ipsr
 2072              	@ 0 "" 2
 2073              		.thumb
 2074 0006 1CB9     		cbnz	r4, .L287
 2075              	@ 1439 "../Dave/Generated/src/RTOS001/SRC/rt_CMSIS.c" 1
 2076 0008 DFF80CC0 		ldr r12,=svcSemaphoreWait
 2077 000c 00DF     		svc 0
 2078              	@ 0 "" 2
 2079              		.thumb
 2080 000e 10BD     		pop	{r4, pc}
 2081              	.L287:
 2082 0010 4FF0FF30 		mov	r0, #-1
 2083 0014 10BD     		pop	{r4, pc}
 2085 0016 0000     		.section	.text.osSemaphoreRelease,"ax",%progbits
 2086              		.align	1
 2087              		.global	osSemaphoreRelease
 2088              		.thumb
 2089              		.thumb_func
 2091              	osSemaphoreRelease:
 2092              		@ args = 0, pretend = 0, frame = 0
 2093              		@ frame_needed = 0, uses_anonymous_args = 0
 2094 0000 10B5     		push	{r4, lr}
 2095              	@ 383 "C:\DAVE-3.1.10\eclipse\/../CMSIS/Include/core_cmFunc.h" 1
 2096 0002 EFF30584 		MRS r4, ipsr
 2097              	@ 0 "" 2
 2098              		.thumb
 2099 0006 E4B1     		cbz	r4, .L289
 2100 0008 10F0030F 		tst	r0, #3
 2101 000c 0DD1     		bne	.L292
 2102 000e 78B1     		cbz	r0, .L293
 2103 0010 0378     		ldrb	r3, [r0, #0]	@ zero_extendqisi2
 2104 0012 022B     		cmp	r3, #2
 2105 0014 0FD1     		bne	.L294
 2106 0016 4288     		ldrh	r2, [r0, #2]
 2107 0018 4FF6FF71 		movw	r1, #65535
 2108 001c 8A42     		cmp	r2, r1
 2109 001e 0DD0     		beq	.L295
 2110 0020 FFF7FEFF 		bl	isr_sem_send
 2111 0024 4FF00000 		mov	r0, #0
 2112 0028 10BD     		pop	{r4, pc}
 2113              	.L292:
 2114 002a 4FF08000 		mov	r0, #128
 2115 002e 10BD     		pop	{r4, pc}
 2116              	.L293:
 2117 0030 4FF08000 		mov	r0, #128
 2118 0034 10BD     		pop	{r4, pc}
 2119              	.L294:
 2120 0036 4FF08000 		mov	r0, #128
 2121 003a 10BD     		pop	{r4, pc}
 2122              	.L295:
 2123 003c 4FF08100 		mov	r0, #129
 2124 0040 10BD     		pop	{r4, pc}
 2125              	.L289:
 2126              	@ 1440 "../Dave/Generated/src/RTOS001/SRC/rt_CMSIS.c" 1
 2127 0042 DFF808C0 		ldr r12,=svcSemaphoreRelease
 2128 0046 00DF     		svc 0
 2129              	@ 0 "" 2
 2130              		.thumb
 2131 0048 10BD     		pop	{r4, pc}
 2133 004a 0000     		.section	.text.osSemaphoreDelete,"ax",%progbits
 2134              		.align	1
 2135              		.global	osSemaphoreDelete
 2136              		.thumb
 2137              		.thumb_func
 2139              	osSemaphoreDelete:
 2140              		@ args = 0, pretend = 0, frame = 0
 2141              		@ frame_needed = 0, uses_anonymous_args = 0
 2142 0000 10B5     		push	{r4, lr}
 2143              	@ 383 "C:\DAVE-3.1.10\eclipse\/../CMSIS/Include/core_cmFunc.h" 1
 2144 0002 EFF30584 		MRS r4, ipsr
 2145              	@ 0 "" 2
 2146              		.thumb
 2147 0006 1CB9     		cbnz	r4, .L298
 2148              	@ 1441 "../Dave/Generated/src/RTOS001/SRC/rt_CMSIS.c" 1
 2149 0008 DFF80CC0 		ldr r12,=svcSemaphoreDelete
 2150 000c 00DF     		svc 0
 2151              	@ 0 "" 2
 2152              		.thumb
 2153 000e 10BD     		pop	{r4, pc}
 2154              	.L298:
 2155 0010 4FF08200 		mov	r0, #130
 2156 0014 10BD     		pop	{r4, pc}
 2158 0016 0000     		.section	.text.svcPoolCreate,"ax",%progbits
 2159              		.align	1
 2160              		.global	svcPoolCreate
 2161              		.thumb
 2162              		.thumb_func
 2164              	svcPoolCreate:
 2165              		@ args = 0, pretend = 0, frame = 0
 2166              		@ frame_needed = 0, uses_anonymous_args = 0
 2167 0000 10B5     		push	{r4, lr}
 2168 0002 0446     		mov	r4, r0
 2169 0004 88B1     		cbz	r0, .L301
 2170 0006 0168     		ldr	r1, [r0, #0]
 2171 0008 91B1     		cbz	r1, .L302
 2172 000a 4268     		ldr	r2, [r0, #4]
 2173 000c 9AB1     		cbz	r2, .L303
 2174 000e 8068     		ldr	r0, [r0, #8]
 2175 0010 A0B1     		cbz	r0, .L304
 2176 0012 02F10302 		add	r2, r2, #3
 2177 0016 22F00302 		bic	r2, r2, #3
 2178 001a 01FB02F1 		mul	r1, r1, r2
 2179 001e 01F10C01 		add	r1, r1, #12
 2180 0022 FFF7FEFF 		bl	_init_box
 2181 0026 A068     		ldr	r0, [r4, #8]
 2182 0028 10BD     		pop	{r4, pc}
 2183              	.L301:
 2184 002a 4FF00000 		mov	r0, #0
 2185 002e 10BD     		pop	{r4, pc}
 2186              	.L302:
 2187 0030 4FF00000 		mov	r0, #0
 2188 0034 10BD     		pop	{r4, pc}
 2189              	.L303:
 2190 0036 4FF00000 		mov	r0, #0
 2191 003a 10BD     		pop	{r4, pc}
 2192              	.L304:
 2193 003c 4FF00000 		mov	r0, #0
 2194 0040 10BD     		pop	{r4, pc}
 2196              		.section	.text.sysPoolAlloc,"ax",%progbits
 2197              		.align	1
 2198              		.global	sysPoolAlloc
 2199              		.thumb
 2200              		.thumb_func
 2202              	sysPoolAlloc:
 2203              		@ args = 0, pretend = 0, frame = 0
 2204              		@ frame_needed = 0, uses_anonymous_args = 0
 2205 0000 38B5     		push	{r3, r4, r5, lr}
 2206 0002 0D46     		mov	r5, r1
 2207 0004 0446     		mov	r4, r0
 2208 0006 00B3     		cbz	r0, .L308
 2209 0008 FFF7FEFF 		bl	rt_alloc_box
 2210 000c FDB1     		cbz	r5, .L306
 2211 000e F0B1     		cbz	r0, .L306
 2212 0010 A268     		ldr	r2, [r4, #8]
 2213 0012 E2B1     		cbz	r2, .L306
 2214 0014 0346     		mov	r3, r0
 2215 0016 A2F10401 		sub	r1, r2, #4
 2216 001a C1F38004 		ubfx	r4, r1, #2, #1
 2217 001e 4FF00001 		mov	r1, #0
 2218 0022 43F8041B 		str	r1, [r3], #4
 2219 0026 03F10403 		add	r3, r3, #4
 2220 002a 043A     		subs	r2, r2, #4
 2221 002c 10D1     		bne	.L314
 2222 002e 38BD     		pop	{r3, r4, r5, pc}
 2223              	.L307:
 2224 0030 4FF00001 		mov	r1, #0
 2225 0034 43F8041C 		str	r1, [r3, #-4]
 2226 0038 A2F10402 		sub	r2, r2, #4
 2227 003c 43F8041B 		str	r1, [r3], #4
 2228 0040 03F10403 		add	r3, r3, #4
 2229 0044 043A     		subs	r2, r2, #4
 2230 0046 F3D1     		bne	.L307
 2231 0048 38BD     		pop	{r3, r4, r5, pc}
 2232              	.L308:
 2233 004a 4FF00000 		mov	r0, #0
 2234              	.L306:
 2235 004e 38BD     		pop	{r3, r4, r5, pc}
 2236              	.L314:
 2237 0050 002C     		cmp	r4, #0
 2238 0052 EDD0     		beq	.L307
 2239 0054 4FF00001 		mov	r1, #0
 2240 0058 43F8041C 		str	r1, [r3, #-4]
 2241 005c 03F10403 		add	r3, r3, #4
 2242 0060 043A     		subs	r2, r2, #4
 2243 0062 E5D1     		bne	.L307
 2244 0064 38BD     		pop	{r3, r4, r5, pc}
 2246              		.section	.text.sysPoolFree,"ax",%progbits
 2247              		.align	1
 2248              		.global	sysPoolFree
 2249              		.thumb
 2250              		.thumb_func
 2252              	sysPoolFree:
 2253              		@ args = 0, pretend = 0, frame = 0
 2254              		@ frame_needed = 0, uses_anonymous_args = 0
 2255 0000 08B5     		push	{r3, lr}
 2256 0002 30B1     		cbz	r0, .L317
 2257 0004 FFF7FEFF 		bl	rt_free_box
 2258 0008 0028     		cmp	r0, #0
 2259 000a 14BF     		ite	ne
 2260 000c 8620     		movne	r0, #134
 2261 000e 0020     		moveq	r0, #0
 2262 0010 08BD     		pop	{r3, pc}
 2263              	.L317:
 2264 0012 4FF08000 		mov	r0, #128
 2265 0016 08BD     		pop	{r3, pc}
 2267              		.section	.text.osPoolCreate,"ax",%progbits
 2268              		.align	1
 2269              		.global	osPoolCreate
 2270              		.thumb
 2271              		.thumb_func
 2273              	osPoolCreate:
 2274              		@ args = 0, pretend = 0, frame = 0
 2275              		@ frame_needed = 0, uses_anonymous_args = 0
 2276 0000 10B5     		push	{r4, lr}
 2277              	@ 383 "C:\DAVE-3.1.10\eclipse\/../CMSIS/Include/core_cmFunc.h" 1
 2278 0002 EFF30584 		MRS r4, ipsr
 2279              	@ 0 "" 2
 2280              		.thumb
 2281 0006 8CB9     		cbnz	r4, .L322
 2282              	@ 356 "C:\DAVE-3.1.10\eclipse\/../CMSIS/Include/core_cmFunc.h" 1
 2283 0008 EFF31484 		MRS r4, control
 2284              	@ 0 "" 2
 2285              		.thumb
 2286 000c 14F0010F 		tst	r4, #1
 2287 0010 08D1     		bne	.L321
 2288 0012 40F20004 		movw	r4, #:lower16:os_running
 2289 0016 C0F20004 		movt	r4, #:upper16:os_running
 2290 001a 2478     		ldrb	r4, [r4, #0]	@ zero_extendqisi2
 2291 001c 14B9     		cbnz	r4, .L321
 2292 001e FFF7FEFF 		bl	svcPoolCreate
 2293 0022 10BD     		pop	{r4, pc}
 2294              	.L321:
 2295              	@ 1594 "../Dave/Generated/src/RTOS001/SRC/rt_CMSIS.c" 1
 2296 0024 DFF80CC0 		ldr r12,=svcPoolCreate
 2297 0028 00DF     		svc 0
 2298              	@ 0 "" 2
 2299              		.thumb
 2300 002a 10BD     		pop	{r4, pc}
 2301              	.L322:
 2302 002c 4FF00000 		mov	r0, #0
 2303 0030 10BD     		pop	{r4, pc}
 2305 0032 0000     		.section	.text.osPoolAlloc,"ax",%progbits
 2306              		.align	1
 2307              		.global	osPoolAlloc
 2308              		.thumb
 2309              		.thumb_func
 2311              	osPoolAlloc:
 2312              		@ args = 0, pretend = 0, frame = 0
 2313              		@ frame_needed = 0, uses_anonymous_args = 0
 2314 0000 08B5     		push	{r3, lr}
 2315              	@ 383 "C:\DAVE-3.1.10\eclipse\/../CMSIS/Include/core_cmFunc.h" 1
 2316 0002 EFF30581 		MRS r1, ipsr
 2317              	@ 0 "" 2
 2318              		.thumb
 2319 0006 21B9     		cbnz	r1, .L324
 2320              	@ 356 "C:\DAVE-3.1.10\eclipse\/../CMSIS/Include/core_cmFunc.h" 1
 2321 0008 EFF31481 		MRS r1, control
 2322              	@ 0 "" 2
 2323              		.thumb
 2324 000c 11F0010F 		tst	r1, #1
 2325 0010 04D1     		bne	.L325
 2326              	.L324:
 2327 0012 4FF00001 		mov	r1, #0
 2328 0016 FFF7FEFF 		bl	sysPoolAlloc
 2329 001a 08BD     		pop	{r3, pc}
 2330              	.L325:
 2331 001c 4FF00001 		mov	r1, #0
 2332              	@ 1595 "../Dave/Generated/src/RTOS001/SRC/rt_CMSIS.c" 1
 2333 0020 DFF804C0 		ldr r12,=sysPoolAlloc
 2334 0024 00DF     		svc 0
 2335              	@ 0 "" 2
 2336              		.thumb
 2337 0026 08BD     		pop	{r3, pc}
 2339              		.section	.text.osPoolCAlloc,"ax",%progbits
 2340              		.align	1
 2341              		.global	osPoolCAlloc
 2342              		.thumb
 2343              		.thumb_func
 2345              	osPoolCAlloc:
 2346              		@ args = 0, pretend = 0, frame = 0
 2347              		@ frame_needed = 0, uses_anonymous_args = 0
 2348 0000 08B5     		push	{r3, lr}
 2349              	@ 383 "C:\DAVE-3.1.10\eclipse\/../CMSIS/Include/core_cmFunc.h" 1
 2350 0002 EFF30581 		MRS r1, ipsr
 2351              	@ 0 "" 2
 2352              		.thumb
 2353 0006 21B9     		cbnz	r1, .L328
 2354              	@ 356 "C:\DAVE-3.1.10\eclipse\/../CMSIS/Include/core_cmFunc.h" 1
 2355 0008 EFF31481 		MRS r1, control
 2356              	@ 0 "" 2
 2357              		.thumb
 2358 000c 11F0010F 		tst	r1, #1
 2359 0010 04D1     		bne	.L329
 2360              	.L328:
 2361 0012 4FF00101 		mov	r1, #1
 2362 0016 FFF7FEFF 		bl	sysPoolAlloc
 2363 001a 08BD     		pop	{r3, pc}
 2364              	.L329:
 2365 001c 4FF00101 		mov	r1, #1
 2366              	@ 1595 "../Dave/Generated/src/RTOS001/SRC/rt_CMSIS.c" 1
 2367 0020 DFF804C0 		ldr r12,=sysPoolAlloc
 2368 0024 00DF     		svc 0
 2369              	@ 0 "" 2
 2370              		.thumb
 2371 0026 08BD     		pop	{r3, pc}
 2373              		.section	.text.osPoolFree,"ax",%progbits
 2374              		.align	1
 2375              		.global	osPoolFree
 2376              		.thumb
 2377              		.thumb_func
 2379              	osPoolFree:
 2380              		@ args = 0, pretend = 0, frame = 0
 2381              		@ frame_needed = 0, uses_anonymous_args = 0
 2382 0000 10B5     		push	{r4, lr}
 2383              	@ 383 "C:\DAVE-3.1.10\eclipse\/../CMSIS/Include/core_cmFunc.h" 1
 2384 0002 EFF30584 		MRS r4, ipsr
 2385              	@ 0 "" 2
 2386              		.thumb
 2387 0006 24B9     		cbnz	r4, .L332
 2388              	@ 356 "C:\DAVE-3.1.10\eclipse\/../CMSIS/Include/core_cmFunc.h" 1
 2389 0008 EFF31484 		MRS r4, control
 2390              	@ 0 "" 2
 2391              		.thumb
 2392 000c 14F0010F 		tst	r4, #1
 2393 0010 02D1     		bne	.L333
 2394              	.L332:
 2395 0012 FFF7FEFF 		bl	sysPoolFree
 2396 0016 10BD     		pop	{r4, pc}
 2397              	.L333:
 2398              	@ 1596 "../Dave/Generated/src/RTOS001/SRC/rt_CMSIS.c" 1
 2399 0018 DFF804C0 		ldr r12,=sysPoolFree
 2400 001c 00DF     		svc 0
 2401              	@ 0 "" 2
 2402              		.thumb
 2403 001e 10BD     		pop	{r4, pc}
 2405              		.section	.text.svcMessageCreate,"ax",%progbits
 2406              		.align	1
 2407              		.global	svcMessageCreate
 2408              		.thumb
 2409              		.thumb_func
 2411              	svcMessageCreate:
 2412              		@ args = 0, pretend = 0, frame = 0
 2413              		@ frame_needed = 0, uses_anonymous_args = 0
 2414 0000 10B5     		push	{r4, lr}
 2415 0002 0446     		mov	r4, r0
 2416 0004 80B1     		cbz	r0, .L337
 2417 0006 0368     		ldr	r3, [r0, #0]
 2418 0008 8BB1     		cbz	r3, .L338
 2419 000a 4068     		ldr	r0, [r0, #4]
 2420 000c 90B1     		cbz	r0, .L339
 2421 000e 0278     		ldrb	r2, [r0, #0]	@ zero_extendqisi2
 2422 0010 9AB9     		cbnz	r2, .L340
 2423 0012 03F10403 		add	r3, r3, #4
 2424 0016 4FEA8303 		lsl	r3, r3, #2
 2425 001a 4FF6FC71 		movw	r1, #65532
 2426 001e 1940     		ands	r1, r1, r3
 2427 0020 FFF7FEFF 		bl	rt_mbx_init
 2428 0024 6068     		ldr	r0, [r4, #4]
 2429 0026 10BD     		pop	{r4, pc}
 2430              	.L337:
 2431 0028 4FF00000 		mov	r0, #0
 2432 002c 10BD     		pop	{r4, pc}
 2433              	.L338:
 2434 002e 4FF00000 		mov	r0, #0
 2435 0032 10BD     		pop	{r4, pc}
 2436              	.L339:
 2437 0034 4FF00000 		mov	r0, #0
 2438 0038 10BD     		pop	{r4, pc}
 2439              	.L340:
 2440 003a 4FF00000 		mov	r0, #0
 2441 003e 10BD     		pop	{r4, pc}
 2443              		.section	.text.svcKernelInitialize,"ax",%progbits
 2444              		.align	1
 2445              		.global	svcKernelInitialize
 2446              		.thumb
 2447              		.thumb_func
 2449              	svcKernelInitialize:
 2450              		@ args = 0, pretend = 0, frame = 0
 2451              		@ frame_needed = 0, uses_anonymous_args = 0
 2452 0000 08B5     		push	{r3, lr}
 2453 0002 40F20003 		movw	r3, #:lower16:os_initialized
 2454 0006 C0F20003 		movt	r3, #:upper16:os_initialized
 2455 000a 1878     		ldrb	r0, [r3, #0]	@ zero_extendqisi2
 2456 000c 70B9     		cbnz	r0, .L342
 2457 000e 40F20000 		movw	r0, #:lower16:os_stack_mem
 2458 0012 C0F20000 		movt	r0, #:upper16:os_stack_mem
 2459 0016 40F20001 		movw	r1, #:lower16:os_stack_sz
 2460 001a C0F20001 		movt	r1, #:upper16:os_stack_sz
 2461 001e 0968     		ldr	r1, [r1, #0]
 2462 0020 FFF7FEFF 		bl	rt_init_mem
 2463 0024 0028     		cmp	r0, #0
 2464 0026 38D1     		bne	.L345
 2465 0028 FFF7FEFF 		bl	rt_sys_init
 2466              	.L342:
 2467 002c 40F20002 		movw	r2, #:lower16:os_tsk
 2468 0030 C0F20002 		movt	r2, #:upper16:os_tsk
 2469 0034 1368     		ldr	r3, [r2, #0]
 2470 0036 4FF0FF00 		mov	r0, #255
 2471 003a 9870     		strb	r0, [r3, #2]
 2472 003c 40F20001 		movw	r1, #:lower16:os_initialized
 2473 0040 C0F20001 		movt	r1, #:upper16:os_initialized
 2474 0044 0A78     		ldrb	r2, [r1, #0]	@ zero_extendqisi2
 2475 0046 CAB9     		cbnz	r2, .L344
 2476 0048 40F20000 		movw	r0, #:lower16:os_messageQ_def_osTimerMessageQ
 2477 004c C0F20000 		movt	r0, #:upper16:os_messageQ_def_osTimerMessageQ
 2478 0050 4FF00001 		mov	r1, #0
 2479 0054 FFF7FEFF 		bl	svcMessageCreate
 2480 0058 40F20003 		movw	r3, #:lower16:osMessageQId_osTimerMessageQ
 2481 005c C0F20003 		movt	r3, #:upper16:osMessageQId_osTimerMessageQ
 2482 0060 1860     		str	r0, [r3, #0]
 2483 0062 40F20000 		movw	r0, #:lower16:os_thread_def_osTimerThread
 2484 0066 C0F20000 		movt	r0, #:upper16:os_thread_def_osTimerThread
 2485 006a 4FF00001 		mov	r1, #0
 2486 006e FFF7FEFF 		bl	svcThreadCreate
 2487 0072 40F20001 		movw	r1, #:lower16:osThreadId_osTimerThread
 2488 0076 C0F20001 		movt	r1, #:upper16:osThreadId_osTimerThread
 2489 007a 0860     		str	r0, [r1, #0]
 2490              	.L344:
 2491 007c 40F20000 		movw	r0, #:lower16:os_initialized
 2492 0080 C0F20000 		movt	r0, #:upper16:os_initialized
 2493 0084 4FF00102 		mov	r2, #1
 2494 0088 0270     		strb	r2, [r0, #0]
 2495 008a 4FF00000 		mov	r0, #0
 2496 008e 40F20003 		movw	r3, #:lower16:os_running
 2497 0092 C0F20003 		movt	r3, #:upper16:os_running
 2498 0096 1870     		strb	r0, [r3, #0]
 2499 0098 08BD     		pop	{r3, pc}
 2500              	.L345:
 2501 009a 4FF08500 		mov	r0, #133
 2502 009e 08BD     		pop	{r3, pc}
 2504              		.section	.text.osKernelInitialize,"ax",%progbits
 2505              		.align	1
 2506              		.global	osKernelInitialize
 2507              		.thumb
 2508              		.thumb_func
 2510              	osKernelInitialize:
 2511              		@ args = 0, pretend = 0, frame = 0
 2512              		@ frame_needed = 0, uses_anonymous_args = 0
 2513 0000 10B5     		push	{r4, lr}
 2514              	@ 383 "C:\DAVE-3.1.10\eclipse\/../CMSIS/Include/core_cmFunc.h" 1
 2515 0002 EFF30584 		MRS r4, ipsr
 2516              	@ 0 "" 2
 2517              		.thumb
 2518 0006 5CB9     		cbnz	r4, .L349
 2519              	@ 356 "C:\DAVE-3.1.10\eclipse\/../CMSIS/Include/core_cmFunc.h" 1
 2520 0008 EFF31484 		MRS r4, control
 2521              	@ 0 "" 2
 2522              		.thumb
 2523 000c 14F0010F 		tst	r4, #1
 2524 0010 02D1     		bne	.L348
 2525 0012 FFF7FEFF 		bl	svcKernelInitialize
 2526 0016 10BD     		pop	{r4, pc}
 2527              	.L348:
 2528              	@ 488 "../Dave/Generated/src/RTOS001/SRC/rt_CMSIS.c" 1
 2529 0018 DFF80CC0 		ldr r12,=svcKernelInitialize
 2530 001c 00DF     		svc 0
 2531              	@ 0 "" 2
 2532              		.thumb
 2533 001e 10BD     		pop	{r4, pc}
 2534              	.L349:
 2535 0020 4FF08200 		mov	r0, #130
 2536 0024 10BD     		pop	{r4, pc}
 2538 0026 0000     		.section	.text.svcMessagePut,"ax",%progbits
 2539              		.align	1
 2540              		.global	svcMessagePut
 2541              		.thumb
 2542              		.thumb_func
 2544              	svcMessagePut:
 2545              		@ args = 0, pretend = 0, frame = 0
 2546              		@ frame_needed = 0, uses_anonymous_args = 0
 2547 0000 70B5     		push	{r4, r5, r6, lr}
 2548 0002 0E46     		mov	r6, r1
 2549 0004 1546     		mov	r5, r2
 2550 0006 0446     		mov	r4, r0
 2551 0008 88B1     		cbz	r0, .L352
 2552 000a 0378     		ldrb	r3, [r0, #0]	@ zero_extendqisi2
 2553 000c 012B     		cmp	r3, #1
 2554 000e 11D1     		bne	.L353
 2555 0010 1046     		mov	r0, r2
 2556 0012 FFF7FEFF 		bl	rt_ms2tick
 2557 0016 82B2     		uxth	r2, r0
 2558 0018 2046     		mov	r0, r4
 2559 001a 3146     		mov	r1, r6
 2560 001c FFF7FEFF 		bl	rt_mbx_send
 2561 0020 0128     		cmp	r0, #1
 2562 0022 0AD1     		bne	.L354
 2563 0024 002D     		cmp	r5, #0
 2564 0026 0CBF     		ite	eq
 2565 0028 8120     		moveq	r0, #129
 2566 002a C120     		movne	r0, #193
 2567 002c 70BD     		pop	{r4, r5, r6, pc}
 2568              	.L352:
 2569 002e 4FF08000 		mov	r0, #128
 2570 0032 70BD     		pop	{r4, r5, r6, pc}
 2571              	.L353:
 2572 0034 4FF08000 		mov	r0, #128
 2573 0038 70BD     		pop	{r4, r5, r6, pc}
 2574              	.L354:
 2575 003a 4FF00000 		mov	r0, #0
 2576 003e 70BD     		pop	{r4, r5, r6, pc}
 2578              		.section	.text.svcMessageGet,"ax",%progbits
 2579              		.align	1
 2580              		.global	svcMessageGet
 2581              		.thumb
 2582              		.thumb_func
 2584              	svcMessageGet:
 2585              		@ args = 0, pretend = 0, frame = 16
 2586              		@ frame_needed = 0, uses_anonymous_args = 0
 2587 0000 30B5     		push	{r4, r5, lr}
 2588 0002 85B0     		sub	sp, sp, #20
 2589 0004 0D46     		mov	r5, r1
 2590 0006 0446     		mov	r4, r0
 2591 0008 30B9     		cbnz	r0, .L357
 2592 000a 4FF00001 		mov	r1, #0
 2593 000e 0A46     		mov	r2, r1
 2594 0010 0B46     		mov	r3, r1
 2595 0012 4FF08000 		mov	r0, #128
 2596 0016 22E0     		b	.L358
 2597              	.L357:
 2598 0018 0378     		ldrb	r3, [r0, #0]	@ zero_extendqisi2
 2599 001a 012B     		cmp	r3, #1
 2600 001c 06D0     		beq	.L359
 2601 001e 4FF00001 		mov	r1, #0
 2602 0022 0A46     		mov	r2, r1
 2603 0024 0B46     		mov	r3, r1
 2604 0026 4FF08000 		mov	r0, #128
 2605 002a 18E0     		b	.L358
 2606              	.L359:
 2607 002c 0846     		mov	r0, r1
 2608 002e FFF7FEFF 		bl	rt_ms2tick
 2609 0032 82B2     		uxth	r2, r0
 2610 0034 2046     		mov	r0, r4
 2611 0036 02A9     		add	r1, sp, #8
 2612 0038 FFF7FEFF 		bl	rt_mbx_wait
 2613 003c 0128     		cmp	r0, #1
 2614 003e 08D1     		bne	.L360
 2615 0040 4FF00003 		mov	r3, #0
 2616 0044 9D42     		cmp	r5, r3
 2617 0046 14BF     		ite	ne
 2618 0048 4020     		movne	r0, #64
 2619 004a 1846     		moveq	r0, r3
 2620 004c 0299     		ldr	r1, [sp, #8]
 2621 004e 1A46     		mov	r2, r3
 2622 0050 05E0     		b	.L358
 2623              	.L360:
 2624 0052 4FF00003 		mov	r3, #0
 2625 0056 4FF01000 		mov	r0, #16
 2626 005a 0299     		ldr	r1, [sp, #8]
 2627 005c 1A46     		mov	r2, r3
 2628              	.L358:
 2629 005e 05B0     		add	sp, sp, #20
 2630 0060 30BD     		pop	{r4, r5, pc}
 2632              		.section	.text.osMessageCreate,"ax",%progbits
 2633              		.align	1
 2634              		.global	osMessageCreate
 2635              		.thumb
 2636              		.thumb_func
 2638              	osMessageCreate:
 2639              		@ args = 0, pretend = 0, frame = 0
 2640              		@ frame_needed = 0, uses_anonymous_args = 0
 2641 0000 10B5     		push	{r4, lr}
 2642              	@ 383 "C:\DAVE-3.1.10\eclipse\/../CMSIS/Include/core_cmFunc.h" 1
 2643 0002 EFF30584 		MRS r4, ipsr
 2644              	@ 0 "" 2
 2645              		.thumb
 2646 0006 8CB9     		cbnz	r4, .L366
 2647              	@ 356 "C:\DAVE-3.1.10\eclipse\/../CMSIS/Include/core_cmFunc.h" 1
 2648 0008 EFF31484 		MRS r4, control
 2649              	@ 0 "" 2
 2650              		.thumb
 2651 000c 14F0010F 		tst	r4, #1
 2652 0010 08D1     		bne	.L365
 2653 0012 40F20004 		movw	r4, #:lower16:os_running
 2654 0016 C0F20004 		movt	r4, #:upper16:os_running
 2655 001a 2478     		ldrb	r4, [r4, #0]	@ zero_extendqisi2
 2656 001c 14B9     		cbnz	r4, .L365
 2657 001e FFF7FEFF 		bl	svcMessageCreate
 2658 0022 10BD     		pop	{r4, pc}
 2659              	.L365:
 2660              	@ 1690 "../Dave/Generated/src/RTOS001/SRC/rt_CMSIS.c" 1
 2661 0024 DFF80CC0 		ldr r12,=svcMessageCreate
 2662 0028 00DF     		svc 0
 2663              	@ 0 "" 2
 2664              		.thumb
 2665 002a 10BD     		pop	{r4, pc}
 2666              	.L366:
 2667 002c 4FF00000 		mov	r0, #0
 2668 0030 10BD     		pop	{r4, pc}
 2670 0032 0000     		.section	.text.osMessagePut,"ax",%progbits
 2671              		.align	1
 2672              		.global	osMessagePut
 2673              		.thumb
 2674              		.thumb_func
 2676              	osMessagePut:
 2677              		@ args = 0, pretend = 0, frame = 0
 2678              		@ frame_needed = 0, uses_anonymous_args = 0
 2679 0000 10B5     		push	{r4, lr}
 2680              	@ 383 "C:\DAVE-3.1.10\eclipse\/../CMSIS/Include/core_cmFunc.h" 1
 2681 0002 EFF30584 		MRS r4, ipsr
 2682              	@ 0 "" 2
 2683              		.thumb
 2684 0006 14B1     		cbz	r4, .L368
 2685 0008 FFF7FEFF 		bl	isrMessagePut
 2686 000c 10BD     		pop	{r4, pc}
 2687              	.L368:
 2688              	@ 1691 "../Dave/Generated/src/RTOS001/SRC/rt_CMSIS.c" 1
 2689 000e DFF808C0 		ldr r12,=svcMessagePut
 2690 0012 00DF     		svc 0
 2691              	@ 0 "" 2
 2692              		.thumb
 2693 0014 10BD     		pop	{r4, pc}
 2695 0016 0000     		.section	.text.osMessageGet,"ax",%progbits
 2696              		.align	1
 2697              		.global	osMessageGet
 2698              		.thumb
 2699              		.thumb_func
 2701              	osMessageGet:
 2702              		@ args = 0, pretend = 0, frame = 16
 2703              		@ frame_needed = 0, uses_anonymous_args = 0
 2704 0000 30B5     		push	{r4, r5, lr}
 2705 0002 85B0     		sub	sp, sp, #20
 2706 0004 0446     		mov	r4, r0
 2707 0006 0846     		mov	r0, r1
 2708 0008 1146     		mov	r1, r2
 2709              	@ 383 "C:\DAVE-3.1.10\eclipse\/../CMSIS/Include/core_cmFunc.h" 1
 2710 000a EFF30585 		MRS r5, ipsr
 2711              	@ 0 "" 2
 2712              		.thumb
 2713 000e 25B3     		cbz	r5, .L371
 2714 0010 00B1     		cbz	r0, .L372
 2715 0012 42B1     		cbz	r2, .L373
 2716              	.L372:
 2717 0014 04A8     		add	r0, sp, #16
 2718 0016 4FF08002 		mov	r2, #128
 2719 001a 40F80C2D 		str	r2, [r0, #-12]!
 2720 001e 07C8     		ldmia	r0, {r0, r1, r2}
 2721 0020 84E80700 		stmia	r4, {r0, r1, r2}
 2722 0024 1FE0     		b	.L370
 2723              	.L373:
 2724 0026 0378     		ldrb	r3, [r0, #0]	@ zero_extendqisi2
 2725 0028 012B     		cmp	r3, #1
 2726 002a 08D0     		beq	.L375
 2727 002c 04A9     		add	r1, sp, #16
 2728 002e 4FF08003 		mov	r3, #128
 2729 0032 41F80C3D 		str	r3, [r1, #-12]!
 2730 0036 07C9     		ldmia	r1, {r0, r1, r2}
 2731 0038 84E80700 		stmia	r4, {r0, r1, r2}
 2732 003c 13E0     		b	.L370
 2733              	.L375:
 2734 003e 02A9     		add	r1, sp, #8
 2735 0040 FFF7FEFF 		bl	isr_mbx_receive
 2736 0044 0428     		cmp	r0, #4
 2737 0046 04A8     		add	r0, sp, #16
 2738 0048 14BF     		ite	ne
 2739 004a 0022     		movne	r2, #0
 2740 004c 1022     		moveq	r2, #16
 2741 004e 40F80C2D 		str	r2, [r0, #-12]!
 2742 0052 07C8     		ldmia	r0, {r0, r1, r2}
 2743 0054 84E80700 		stmia	r4, {r0, r1, r2}
 2744 0058 05E0     		b	.L370
 2745              	.L371:
 2746              	@ 1692 "../Dave/Generated/src/RTOS001/SRC/rt_CMSIS.c" 1
 2747 005a DFF810C0 		ldr r12,=svcMessageGet
 2748 005e 00DF     		svc 0
 2749              	@ 0 "" 2
 2750              		.thumb
 2751 0060 2060     		str	r0, [r4, #0]
 2752 0062 6160     		str	r1, [r4, #4]
 2753 0064 A260     		str	r2, [r4, #8]
 2754              	.L370:
 2755 0066 2046     		mov	r0, r4
 2756 0068 05B0     		add	sp, sp, #20
 2757 006a 30BD     		pop	{r4, r5, pc}
 2759              		.section	.text.osTimerThread,"ax",%progbits
 2760              		.align	1
 2761              		.global	osTimerThread
 2762              		.thumb
 2763              		.thumb_func
 2765              	osTimerThread:
 2766              		@ Volatile: function does not return.
 2767              		@ args = 0, pretend = 0, frame = 24
 2768              		@ frame_needed = 0, uses_anonymous_args = 0
 2769 0000 00B5     		push	{lr}
 2770 0002 87B0     		sub	sp, sp, #28
 2771              	.L384:
 2772 0004 01A8     		add	r0, sp, #4
 2773 0006 40F20003 		movw	r3, #:lower16:osMessageQId_osTimerMessageQ
 2774 000a C0F20003 		movt	r3, #:upper16:osMessageQId_osTimerMessageQ
 2775 000e 1968     		ldr	r1, [r3, #0]
 2776 0010 4FF0FF32 		mov	r2, #-1
 2777 0014 FFF7FEFF 		bl	osMessageGet
 2778 0018 0198     		ldr	r0, [sp, #4]
 2779 001a 1028     		cmp	r0, #16
 2780 001c F2D1     		bne	.L384
 2781 001e 04A8     		add	r0, sp, #16
 2782 0020 0299     		ldr	r1, [sp, #8]
 2783 0022 FFF7FEFF 		bl	osTimerCall
 2784 0026 0499     		ldr	r1, [sp, #16]
 2785 0028 0029     		cmp	r1, #0
 2786 002a EBD0     		beq	.L384
 2787 002c 0598     		ldr	r0, [sp, #20]
 2788 002e 8847     		blx	r1
 2789 0030 E8E7     		b	.L384
 2791              		.section	.text.svcMailCreate,"ax",%progbits
 2792              		.align	1
 2793              		.global	svcMailCreate
 2794              		.thumb
 2795              		.thumb_func
 2797              	svcMailCreate:
 2798              		@ args = 0, pretend = 0, frame = 0
 2799              		@ frame_needed = 0, uses_anonymous_args = 0
 2800 0000 38B5     		push	{r3, r4, r5, lr}
 2801 0002 0446     		mov	r4, r0
 2802 0004 0028     		cmp	r0, #0
 2803 0006 28D0     		beq	.L387
 2804 0008 0168     		ldr	r1, [r0, #0]
 2805 000a 0029     		cmp	r1, #0
 2806 000c 28D0     		beq	.L388
 2807 000e 4268     		ldr	r2, [r0, #4]
 2808 0010 002A     		cmp	r2, #0
 2809 0012 28D0     		beq	.L389
 2810 0014 8368     		ldr	r3, [r0, #8]
 2811 0016 002B     		cmp	r3, #0
 2812 0018 28D0     		beq	.L390
 2813 001a 1D68     		ldr	r5, [r3, #0]
 2814 001c 5868     		ldr	r0, [r3, #4]
 2815 001e 0028     		cmp	r0, #0
 2816 0020 27D0     		beq	.L391
 2817 0022 002D     		cmp	r5, #0
 2818 0024 28D0     		beq	.L392
 2819 0026 2B78     		ldrb	r3, [r5, #0]	@ zero_extendqisi2
 2820 0028 002B     		cmp	r3, #0
 2821 002a 28D1     		bne	.L393
 2822 002c 02F10302 		add	r2, r2, #3
 2823 0030 22F00302 		bic	r2, r2, #3
 2824 0034 01FB02F1 		mul	r1, r1, r2
 2825 0038 01F10C01 		add	r1, r1, #12
 2826 003c FFF7FEFF 		bl	_init_box
 2827 0040 2068     		ldr	r0, [r4, #0]
 2828 0042 00F10400 		add	r0, r0, #4
 2829 0046 4FEA8002 		lsl	r2, r0, #2
 2830 004a 2846     		mov	r0, r5
 2831 004c 4FF6FC71 		movw	r1, #65532
 2832 0050 1140     		ands	r1, r1, r2
 2833 0052 FFF7FEFF 		bl	rt_mbx_init
 2834 0056 A068     		ldr	r0, [r4, #8]
 2835 0058 38BD     		pop	{r3, r4, r5, pc}
 2836              	.L387:
 2837 005a 4FF00000 		mov	r0, #0
 2838 005e 38BD     		pop	{r3, r4, r5, pc}
 2839              	.L388:
 2840 0060 4FF00000 		mov	r0, #0
 2841 0064 38BD     		pop	{r3, r4, r5, pc}
 2842              	.L389:
 2843 0066 4FF00000 		mov	r0, #0
 2844 006a 38BD     		pop	{r3, r4, r5, pc}
 2845              	.L390:
 2846 006c 4FF00000 		mov	r0, #0
 2847 0070 38BD     		pop	{r3, r4, r5, pc}
 2848              	.L391:
 2849 0072 4FF00000 		mov	r0, #0
 2850 0076 38BD     		pop	{r3, r4, r5, pc}
 2851              	.L392:
 2852 0078 4FF00000 		mov	r0, #0
 2853 007c 38BD     		pop	{r3, r4, r5, pc}
 2854              	.L393:
 2855 007e 4FF00000 		mov	r0, #0
 2856 0082 38BD     		pop	{r3, r4, r5, pc}
 2858              		.section	.text.sysMailAlloc,"ax",%progbits
 2859              		.align	1
 2860              		.global	sysMailAlloc
 2861              		.thumb
 2862              		.thumb_func
 2864              	sysMailAlloc:
 2865              		@ args = 0, pretend = 0, frame = 0
 2866              		@ frame_needed = 0, uses_anonymous_args = 0
 2867 0000 F8B5     		push	{r3, r4, r5, r6, r7, lr}
 2868 0002 0F46     		mov	r7, r1
 2869 0004 1E46     		mov	r6, r3
 2870 0006 0446     		mov	r4, r0
 2871 0008 0028     		cmp	r0, #0
 2872 000a 52D0     		beq	.L403
 2873 000c 0568     		ldr	r5, [r0, #0]
 2874 000e 4468     		ldr	r4, [r0, #4]
 2875 0010 002C     		cmp	r4, #0
 2876 0012 51D0     		beq	.L404
 2877 0014 002D     		cmp	r5, #0
 2878 0016 52D0     		beq	.L405
 2879 0018 0AB1     		cbz	r2, .L396
 2880 001a 0029     		cmp	r1, #0
 2881 001c 52D1     		bne	.L406
 2882              	.L396:
 2883 001e 2046     		mov	r0, r4
 2884 0020 FFF7FEFF 		bl	rt_alloc_box
 2885 0024 F6B1     		cbz	r6, .L397
 2886 0026 F8B1     		cbz	r0, .L398
 2887 0028 A268     		ldr	r2, [r4, #8]
 2888 002a 002A     		cmp	r2, #0
 2889 002c 4FD0     		beq	.L395
 2890 002e 0346     		mov	r3, r0
 2891 0030 A2F10404 		sub	r4, r2, #4
 2892 0034 C4F38004 		ubfx	r4, r4, #2, #1
 2893 0038 4FF00001 		mov	r1, #0
 2894 003c 43F8041B 		str	r1, [r3], #4
 2895 0040 03F10403 		add	r3, r3, #4
 2896 0044 043A     		subs	r2, r2, #4
 2897 0046 43D1     		bne	.L413
 2898 0048 F8BD     		pop	{r3, r4, r5, r6, r7, pc}
 2899              	.L400:
 2900 004a 4FF00001 		mov	r1, #0
 2901 004e 43F8041C 		str	r1, [r3, #-4]
 2902 0052 A2F10402 		sub	r2, r2, #4
 2903 0056 43F8041B 		str	r1, [r3], #4
 2904 005a 03F10403 		add	r3, r3, #4
 2905 005e 043A     		subs	r2, r2, #4
 2906 0060 F3D1     		bne	.L400
 2907 0062 F8BD     		pop	{r3, r4, r5, r6, r7, pc}
 2908              	.L397:
 2909 0064 0028     		cmp	r0, #0
 2910 0066 32D1     		bne	.L395
 2911              	.L398:
 2912 0068 002F     		cmp	r7, #0
 2913 006a 2ED0     		beq	.L407
 2914 006c 6B68     		ldr	r3, [r5, #4]
 2915 006e 43B1     		cbz	r3, .L401
 2916 0070 2846     		mov	r0, r5
 2917 0072 40F20001 		movw	r1, #:lower16:os_tsk
 2918 0076 C0F20001 		movt	r1, #:upper16:os_tsk
 2919 007a 0968     		ldr	r1, [r1, #0]
 2920 007c FFF7FEFF 		bl	rt_put_prio
 2921 0080 0CE0     		b	.L402
 2922              	.L401:
 2923 0082 40F20000 		movw	r0, #:lower16:os_tsk
 2924 0086 C0F20000 		movt	r0, #:upper16:os_tsk
 2925 008a 0168     		ldr	r1, [r0, #0]
 2926 008c 6960     		str	r1, [r5, #4]
 2927 008e 4FF00002 		mov	r2, #0
 2928 0092 4A60     		str	r2, [r1, #4]
 2929 0094 8D60     		str	r5, [r1, #8]
 2930 0096 4FF00303 		mov	r3, #3
 2931 009a 6B70     		strb	r3, [r5, #1]
 2932              	.L402:
 2933 009c 3846     		mov	r0, r7
 2934 009e FFF7FEFF 		bl	rt_ms2tick
 2935 00a2 80B2     		uxth	r0, r0
 2936 00a4 4FF00801 		mov	r1, #8
 2937 00a8 FFF7FEFF 		bl	rt_block
 2938 00ac 4FF00000 		mov	r0, #0
 2939 00b0 F8BD     		pop	{r3, r4, r5, r6, r7, pc}
 2940              	.L403:
 2941 00b2 4FF00000 		mov	r0, #0
 2942 00b6 F8BD     		pop	{r3, r4, r5, r6, r7, pc}
 2943              	.L404:
 2944 00b8 4FF00000 		mov	r0, #0
 2945 00bc F8BD     		pop	{r3, r4, r5, r6, r7, pc}
 2946              	.L405:
 2947 00be 4FF00000 		mov	r0, #0
 2948 00c2 F8BD     		pop	{r3, r4, r5, r6, r7, pc}
 2949              	.L406:
 2950 00c4 4FF00000 		mov	r0, #0
 2951 00c8 F8BD     		pop	{r3, r4, r5, r6, r7, pc}
 2952              	.L407:
 2953 00ca 4FF00000 		mov	r0, #0
 2954              	.L395:
 2955 00ce F8BD     		pop	{r3, r4, r5, r6, r7, pc}
 2956              	.L413:
 2957 00d0 002C     		cmp	r4, #0
 2958 00d2 BAD0     		beq	.L400
 2959 00d4 4FF00001 		mov	r1, #0
 2960 00d8 43F8041C 		str	r1, [r3, #-4]
 2961 00dc 03F10403 		add	r3, r3, #4
 2962 00e0 043A     		subs	r2, r2, #4
 2963 00e2 B2D1     		bne	.L400
 2964 00e4 F8BD     		pop	{r3, r4, r5, r6, r7, pc}
 2966              		.section	.text.sysMailFree,"ax",%progbits
 2967              		.align	1
 2968              		.global	sysMailFree
 2969              		.thumb
 2970              		.thumb_func
 2972              	sysMailFree:
 2973              		@ args = 0, pretend = 0, frame = 0
 2974              		@ frame_needed = 0, uses_anonymous_args = 0
 2975 0000 70B5     		push	{r4, r5, r6, lr}
 2976 0002 1646     		mov	r6, r2
 2977 0004 0028     		cmp	r0, #0
 2978 0006 30D0     		beq	.L417
 2979 0008 0468     		ldr	r4, [r0, #0]
 2980 000a 4568     		ldr	r5, [r0, #4]
 2981 000c 002C     		cmp	r4, #0
 2982 000e 2FD0     		beq	.L418
 2983 0010 002D     		cmp	r5, #0
 2984 0012 30D0     		beq	.L419
 2985 0014 2846     		mov	r0, r5
 2986 0016 FFF7FEFF 		bl	rt_free_box
 2987 001a 0028     		cmp	r0, #0
 2988 001c 2ED1     		bne	.L420
 2989 001e 6068     		ldr	r0, [r4, #4]
 2990 0020 0028     		cmp	r0, #0
 2991 0022 2ED0     		beq	.L421
 2992 0024 6178     		ldrb	r1, [r4, #1]	@ zero_extendqisi2
 2993 0026 0329     		cmp	r1, #3
 2994 0028 2ED1     		bne	.L422
 2995 002a 46B1     		cbz	r6, .L416
 2996 002c 2046     		mov	r0, r4
 2997 002e 2946     		mov	r1, r5
 2998 0030 FFF7FEFF 		bl	rt_psq_enq
 2999 0034 FFF7FEFF 		bl	rt_psh_req
 3000 0038 4FF00000 		mov	r0, #0
 3001 003c 70BD     		pop	{r4, r5, r6, pc}
 3002              	.L416:
 3003 003e 2846     		mov	r0, r5
 3004 0040 FFF7FEFF 		bl	rt_alloc_box
 3005 0044 0546     		mov	r5, r0
 3006 0046 0028     		cmp	r0, #0
 3007 0048 21D0     		beq	.L423
 3008 004a 2046     		mov	r0, r4
 3009 004c FFF7FEFF 		bl	rt_get_first
 3010 0050 0446     		mov	r4, r0
 3011 0052 2946     		mov	r1, r5
 3012 0054 FFF7FEFF 		bl	rt_ret_val
 3013 0058 2046     		mov	r0, r4
 3014 005a FFF7FEFF 		bl	rt_rmv_dly
 3015 005e 2046     		mov	r0, r4
 3016 0060 FFF7FEFF 		bl	rt_dispatch
 3017 0064 4FF00000 		mov	r0, #0
 3018 0068 70BD     		pop	{r4, r5, r6, pc}
 3019              	.L417:
 3020 006a 4FF08000 		mov	r0, #128
 3021 006e 70BD     		pop	{r4, r5, r6, pc}
 3022              	.L418:
 3023 0070 4FF08000 		mov	r0, #128
 3024 0074 70BD     		pop	{r4, r5, r6, pc}
 3025              	.L419:
 3026 0076 4FF08000 		mov	r0, #128
 3027 007a 70BD     		pop	{r4, r5, r6, pc}
 3028              	.L420:
 3029 007c 4FF08600 		mov	r0, #134
 3030 0080 70BD     		pop	{r4, r5, r6, pc}
 3031              	.L421:
 3032 0082 4FF00000 		mov	r0, #0
 3033 0086 70BD     		pop	{r4, r5, r6, pc}
 3034              	.L422:
 3035 0088 4FF00000 		mov	r0, #0
 3036 008c 70BD     		pop	{r4, r5, r6, pc}
 3037              	.L423:
 3038 008e 4FF00000 		mov	r0, #0
 3039 0092 70BD     		pop	{r4, r5, r6, pc}
 3041              		.section	.text.osMailCreate,"ax",%progbits
 3042              		.align	1
 3043              		.global	osMailCreate
 3044              		.thumb
 3045              		.thumb_func
 3047              	osMailCreate:
 3048              		@ args = 0, pretend = 0, frame = 0
 3049              		@ frame_needed = 0, uses_anonymous_args = 0
 3050 0000 10B5     		push	{r4, lr}
 3051              	@ 383 "C:\DAVE-3.1.10\eclipse\/../CMSIS/Include/core_cmFunc.h" 1
 3052 0002 EFF30584 		MRS r4, ipsr
 3053              	@ 0 "" 2
 3054              		.thumb
 3055 0006 8CB9     		cbnz	r4, .L427
 3056              	@ 356 "C:\DAVE-3.1.10\eclipse\/../CMSIS/Include/core_cmFunc.h" 1
 3057 0008 EFF31484 		MRS r4, control
 3058              	@ 0 "" 2
 3059              		.thumb
 3060 000c 14F0010F 		tst	r4, #1
 3061 0010 08D1     		bne	.L426
 3062 0012 40F20004 		movw	r4, #:lower16:os_running
 3063 0016 C0F20004 		movt	r4, #:upper16:os_running
 3064 001a 2478     		ldrb	r4, [r4, #0]	@ zero_extendqisi2
 3065 001c 14B9     		cbnz	r4, .L426
 3066 001e FFF7FEFF 		bl	svcMailCreate
 3067 0022 10BD     		pop	{r4, pc}
 3068              	.L426:
 3069              	@ 1844 "../Dave/Generated/src/RTOS001/SRC/rt_CMSIS.c" 1
 3070 0024 DFF80CC0 		ldr r12,=svcMailCreate
 3071 0028 00DF     		svc 0
 3072              	@ 0 "" 2
 3073              		.thumb
 3074 002a 10BD     		pop	{r4, pc}
 3075              	.L427:
 3076 002c 4FF00000 		mov	r0, #0
 3077 0030 10BD     		pop	{r4, pc}
 3079 0032 0000     		.section	.text.osMailAlloc,"ax",%progbits
 3080              		.align	1
 3081              		.global	osMailAlloc
 3082              		.thumb
 3083              		.thumb_func
 3085              	osMailAlloc:
 3086              		@ args = 0, pretend = 0, frame = 0
 3087              		@ frame_needed = 0, uses_anonymous_args = 0
 3088 0000 08B5     		push	{r3, lr}
 3089              	@ 383 "C:\DAVE-3.1.10\eclipse\/../CMSIS/Include/core_cmFunc.h" 1
 3090 0002 EFF30583 		MRS r3, ipsr
 3091              	@ 0 "" 2
 3092              		.thumb
 3093 0006 33B1     		cbz	r3, .L429
 3094 0008 4FF00102 		mov	r2, #1
 3095 000c 4FF00003 		mov	r3, #0
 3096 0010 FFF7FEFF 		bl	sysMailAlloc
 3097 0014 08BD     		pop	{r3, pc}
 3098              	.L429:
 3099 0016 4FF00002 		mov	r2, #0
 3100 001a 1346     		mov	r3, r2
 3101              	@ 1845 "../Dave/Generated/src/RTOS001/SRC/rt_CMSIS.c" 1
 3102 001c DFF804C0 		ldr r12,=sysMailAlloc
 3103 0020 00DF     		svc 0
 3104              	@ 0 "" 2
 3105              		.thumb
 3106 0022 08BD     		pop	{r3, pc}
 3108              		.section	.text.osMailCAlloc,"ax",%progbits
 3109              		.align	1
 3110              		.global	osMailCAlloc
 3111              		.thumb
 3112              		.thumb_func
 3114              	osMailCAlloc:
 3115              		@ args = 0, pretend = 0, frame = 0
 3116              		@ frame_needed = 0, uses_anonymous_args = 0
 3117 0000 08B5     		push	{r3, lr}
 3118              	@ 383 "C:\DAVE-3.1.10\eclipse\/../CMSIS/Include/core_cmFunc.h" 1
 3119 0002 EFF30583 		MRS r3, ipsr
 3120              	@ 0 "" 2
 3121              		.thumb
 3122 0006 2BB1     		cbz	r3, .L432
 3123 0008 4FF00102 		mov	r2, #1
 3124 000c 1346     		mov	r3, r2
 3125 000e FFF7FEFF 		bl	sysMailAlloc
 3126 0012 08BD     		pop	{r3, pc}
 3127              	.L432:
 3128 0014 4FF00002 		mov	r2, #0
 3129 0018 4FF00103 		mov	r3, #1
 3130              	@ 1845 "../Dave/Generated/src/RTOS001/SRC/rt_CMSIS.c" 1
 3131 001c DFF804C0 		ldr r12,=sysMailAlloc
 3132 0020 00DF     		svc 0
 3133              	@ 0 "" 2
 3134              		.thumb
 3135 0022 08BD     		pop	{r3, pc}
 3137              		.section	.text.osMailFree,"ax",%progbits
 3138              		.align	1
 3139              		.global	osMailFree
 3140              		.thumb
 3141              		.thumb_func
 3143              	osMailFree:
 3144              		@ args = 0, pretend = 0, frame = 0
 3145              		@ frame_needed = 0, uses_anonymous_args = 0
 3146 0000 08B5     		push	{r3, lr}
 3147              	@ 383 "C:\DAVE-3.1.10\eclipse\/../CMSIS/Include/core_cmFunc.h" 1
 3148 0002 EFF30582 		MRS r2, ipsr
 3149              	@ 0 "" 2
 3150              		.thumb
 3151 0006 22B1     		cbz	r2, .L435
 3152 0008 4FF00102 		mov	r2, #1
 3153 000c FFF7FEFF 		bl	sysMailFree
 3154 0010 08BD     		pop	{r3, pc}
 3155              	.L435:
 3156 0012 4FF00002 		mov	r2, #0
 3157              	@ 1846 "../Dave/Generated/src/RTOS001/SRC/rt_CMSIS.c" 1
 3158 0016 DFF808C0 		ldr r12,=sysMailFree
 3159 001a 00DF     		svc 0
 3160              	@ 0 "" 2
 3161              		.thumb
 3162 001c 08BD     		pop	{r3, pc}
 3164 001e 0000     		.section	.text.osMailPut,"ax",%progbits
 3165              		.align	1
 3166              		.global	osMailPut
 3167              		.thumb
 3168              		.thumb_func
 3170              	osMailPut:
 3171              		@ args = 0, pretend = 0, frame = 0
 3172              		@ frame_needed = 0, uses_anonymous_args = 0
 3173 0000 08B5     		push	{r3, lr}
 3174 0002 30B1     		cbz	r0, .L439
 3175 0004 41B1     		cbz	r1, .L440
 3176 0006 0068     		ldr	r0, [r0, #0]
 3177 0008 4FF00002 		mov	r2, #0
 3178 000c FFF7FEFF 		bl	osMessagePut
 3179 0010 08BD     		pop	{r3, pc}
 3180              	.L439:
 3181 0012 4FF08000 		mov	r0, #128
 3182 0016 08BD     		pop	{r3, pc}
 3183              	.L440:
 3184 0018 4FF08600 		mov	r0, #134
 3185 001c 08BD     		pop	{r3, pc}
 3187              		.section	.text.osMailGet,"ax",%progbits
 3188              		.align	1
 3189              		.global	osMailGet
 3190              		.thumb
 3191              		.thumb_func
 3193              	osMailGet:
 3194              		@ args = 0, pretend = 0, frame = 0
 3195              		@ frame_needed = 0, uses_anonymous_args = 0
 3196 0000 10B5     		push	{r4, lr}
 3197 0002 0446     		mov	r4, r0
 3198 0004 19B9     		cbnz	r1, .L442
 3199 0006 4FF08001 		mov	r1, #128
 3200 000a 0160     		str	r1, [r0, #0]
 3201 000c 07E0     		b	.L441
 3202              	.L442:
 3203 000e 0968     		ldr	r1, [r1, #0]
 3204 0010 FFF7FEFF 		bl	osMessageGet
 3205 0014 2068     		ldr	r0, [r4, #0]
 3206 0016 1028     		cmp	r0, #16
 3207 0018 08BF     		it	eq
 3208 001a 2020     		moveq	r0, #32
 3209 001c 2060     		str	r0, [r4, #0]
 3210              	.L441:
 3211 001e 2046     		mov	r0, r4
 3212 0020 10BD     		pop	{r4, pc}
 3214              		.section	.text.os_suspend,"ax",%progbits
 3215              		.align	1
 3216              		.global	os_suspend
 3217              		.thumb
 3218              		.thumb_func
 3220              	os_suspend:
 3221              		@ args = 0, pretend = 0, frame = 0
 3222              		@ frame_needed = 0, uses_anonymous_args = 0
 3223 0000 00B5     		push	{lr}
 3224              	@ 2023 "../Dave/Generated/src/RTOS001/SRC/rt_CMSIS.c" 1
 3225 0002 DFF808C0 		ldr r12,=rt_suspend
 3226 0006 00DF     		svc 0
 3227              	@ 0 "" 2
 3228              		.thumb
 3229 0008 5DF804FB 		ldr	pc, [sp], #4
 3231              		.section	.text.os_resume,"ax",%progbits
 3232              		.align	1
 3233              		.global	os_resume
 3234              		.thumb
 3235              		.thumb_func
 3237              	os_resume:
 3238              		@ args = 0, pretend = 0, frame = 0
 3239              		@ frame_needed = 0, uses_anonymous_args = 0
 3240 0000 00B5     		push	{lr}
 3241              	@ 2024 "../Dave/Generated/src/RTOS001/SRC/rt_CMSIS.c" 1
 3242 0002 DFF808C0 		ldr r12,=rt_resume
 3243 0006 00DF     		svc 0
 3244              	@ 0 "" 2
 3245              		.thumb
 3246 0008 5DF804FB 		ldr	pc, [sp], #4
 3248              		.comm	os_timer_head,4,4
 3249              		.comm	os_running,1,1
 3250              		.comm	os_initialized,1,1
 3251 000c 00000000 		.ident	"GCC: (GNU Tools for ARM Embedded Processors) 4.7.4 20130913 (release) [ARM/embedded-4_7-br