   1              		.syntax unified
   2              		.cpu cortex-m4
   3              		.eabi_attribute 27, 3
   4              		.fpu fpv4-sp-d16
   5              		.eabi_attribute 20, 1
   6              		.eabi_attribute 21, 1
   7              		.eabi_attribute 23, 3
   8              		.eabi_attribute 24, 1
   9              		.eabi_attribute 25, 1
  10              		.eabi_attribute 26, 1
  11              		.eabi_attribute 30, 4
  12              		.eabi_attribute 34, 1
  13              		.eabi_attribute 18, 4
  14              		.thumb
  15              		.file	"rt_Event.c"
  16              		.section	.text.rt_evt_wait,"ax",%progbits
  17              		.align	1
  18              		.global	rt_evt_wait
  19              		.thumb
  20              		.thumb_func
  22              	rt_evt_wait:
  23              		@ args = 0, pretend = 0, frame = 0
  24              		@ frame_needed = 0, uses_anonymous_args = 0
  25 0000 38B5     		push	{r3, r4, r5, lr}
  26 0002 0346     		mov	r3, r0
  27 0004 104C     		ldr	r4, .L9
  28 0006 4AB1     		cbz	r2, .L2
  29 0008 2068     		ldr	r0, [r4, #0]
  30 000a 048B     		ldrh	r4, [r0, #24]
  31 000c 03EA0405 		and	r5, r3, r4
  32 0010 9D42     		cmp	r5, r3
  33 0012 0DD1     		bne	.L5
  34 0014 24EA0504 		bic	r4, r4, r5
  35 0018 0483     		strh	r4, [r0, #24]	@ movhi
  36 001a 07E0     		b	.L7
  37              	.L2:
  38 001c 2268     		ldr	r2, [r4, #0]
  39 001e 148B     		ldrh	r4, [r2, #24]
  40 0020 2040     		ands	r0, r0, r4
  41 0022 07D0     		beq	.L6
  42 0024 24EA0301 		bic	r1, r4, r3
  43 0028 5083     		strh	r0, [r2, #26]	@ movhi
  44 002a 1183     		strh	r1, [r2, #24]	@ movhi
  45              	.L7:
  46 002c 0220     		movs	r0, #2
  47 002e 38BD     		pop	{r3, r4, r5, pc}
  48              	.L5:
  49 0030 0622     		movs	r2, #6
  50 0032 00E0     		b	.L3
  51              	.L6:
  52 0034 0522     		movs	r2, #5
  53              	.L3:
  54 0036 0448     		ldr	r0, .L9
  55 0038 0068     		ldr	r0, [r0, #0]
  56 003a 4383     		strh	r3, [r0, #26]	@ movhi
  57 003c 0846     		mov	r0, r1
  58 003e 1146     		mov	r1, r2
  59 0040 FFF7FEFF 		bl	rt_block
  60 0044 0120     		movs	r0, #1
  61 0046 38BD     		pop	{r3, r4, r5, pc}
  62              	.L10:
  63              		.align	2
  64              	.L9:
  65 0048 00000000 		.word	os_tsk
  67              		.section	.text.rt_evt_set,"ax",%progbits
  68              		.align	1
  69              		.global	rt_evt_set
  70              		.thumb
  71              		.thumb_func
  73              	rt_evt_set:
  74              		@ args = 0, pretend = 0, frame = 0
  75              		@ frame_needed = 0, uses_anonymous_args = 0
  76 0000 0139     		subs	r1, r1, #1
  77 0002 154B     		ldr	r3, .L20
  78 0004 10B5     		push	{r4, lr}
  79 0006 53F82140 		ldr	r4, [r3, r1, lsl #2]
  80 000a 002C     		cmp	r4, #0
  81 000c 23D0     		beq	.L11
  82 000e 228B     		ldrh	r2, [r4, #24]
  83 0010 6378     		ldrb	r3, [r4, #1]	@ zero_extendqisi2
  84 0012 618B     		ldrh	r1, [r4, #26]
  85 0014 1043     		orrs	r0, r0, r2
  86 0016 062B     		cmp	r3, #6
  87 0018 2083     		strh	r0, [r4, #24]	@ movhi
  88 001a 04D1     		bne	.L14
  89 001c 00EA0103 		and	r3, r0, r1
  90 0020 8B42     		cmp	r3, r1
  91 0022 18D1     		bne	.L11
  92 0024 05E0     		b	.L15
  93              	.L14:
  94 0026 052B     		cmp	r3, #5
  95 0028 15D1     		bne	.L11
  96 002a 10EA0102 		ands	r2, r0, r1
  97 002e 12D0     		beq	.L11
  98 0030 6283     		strh	r2, [r4, #26]	@ movhi
  99              	.L15:
 100 0032 20EA0100 		bic	r0, r0, r1
 101 0036 2083     		strh	r0, [r4, #24]	@ movhi
 102 0038 2046     		mov	r0, r4
 103 003a FFF7FEFF 		bl	rt_rmv_dly
 104 003e 0120     		movs	r0, #1
 105 0040 6070     		strb	r0, [r4, #1]
 106 0042 0821     		movs	r1, #8
 107 0044 2046     		mov	r0, r4
 108 0046 628B     		ldrh	r2, [r4, #26]
 109 0048 FFF7FEFF 		bl	rt_ret_val2
 110 004c 2046     		mov	r0, r4
 111 004e BDE81040 		pop	{r4, lr}
 112 0052 FFF7FEBF 		b	rt_dispatch
 113              	.L11:
 114 0056 10BD     		pop	{r4, pc}
 115              	.L21:
 116              		.align	2
 117              	.L20:
 118 0058 00000000 		.word	os_active_TCB
 120              		.section	.text.rt_evt_clr,"ax",%progbits
 121              		.align	1
 122              		.global	rt_evt_clr
 123              		.thumb
 124              		.thumb_func
 126              	rt_evt_clr:
 127              		@ args = 0, pretend = 0, frame = 0
 128              		@ frame_needed = 0, uses_anonymous_args = 0
 129              		@ link register save eliminated.
 130 0000 0139     		subs	r1, r1, #1
 131 0002 044B     		ldr	r3, .L27
 132 0004 53F82110 		ldr	r1, [r3, r1, lsl #2]
 133 0008 19B1     		cbz	r1, .L22
 134 000a 0A8B     		ldrh	r2, [r1, #24]
 135 000c 22EA0000 		bic	r0, r2, r0
 136 0010 0883     		strh	r0, [r1, #24]	@ movhi
 137              	.L22:
 138 0012 7047     		bx	lr
 139              	.L28:
 140              		.align	2
 141              	.L27:
 142 0014 00000000 		.word	os_active_TCB
 144              		.section	.text.isr_evt_set,"ax",%progbits
 145              		.align	1
 146              		.global	isr_evt_set
 147              		.thumb
 148              		.thumb_func
 150              	isr_evt_set:
 151              		@ args = 0, pretend = 0, frame = 0
 152              		@ frame_needed = 0, uses_anonymous_args = 0
 153 0000 08B5     		push	{r3, lr}
 154 0002 0139     		subs	r1, r1, #1
 155 0004 064B     		ldr	r3, .L31
 156 0006 0246     		mov	r2, r0
 157 0008 53F82100 		ldr	r0, [r3, r1, lsl #2]
 158 000c 30B1     		cbz	r0, .L29
 159 000e 1146     		mov	r1, r2
 160 0010 FFF7FEFF 		bl	rt_psq_enq
 161 0014 BDE80840 		pop	{r3, lr}
 162 0018 FFF7FEBF 		b	rt_psh_req
 163              	.L29:
 164 001c 08BD     		pop	{r3, pc}
 165              	.L32:
 166 001e 00BF     		.align	2
 167              	.L31:
 168 0020 00000000 		.word	os_active_TCB
 170              		.section	.text.rt_evt_get,"ax",%progbits
 171              		.align	1
 172              		.global	rt_evt_get
 173              		.thumb
 174              		.thumb_func
 176              	rt_evt_get:
 177              		@ args = 0, pretend = 0, frame = 0
 178              		@ frame_needed = 0, uses_anonymous_args = 0
 179              		@ link register save eliminated.
 180 0000 014B     		ldr	r3, .L34
 181 0002 1868     		ldr	r0, [r3, #0]
 182 0004 408B     		ldrh	r0, [r0, #26]
 183 0006 7047     		bx	lr
 184              	.L35:
 185              		.align	2
 186              	.L34:
 187 0008 00000000 		.word	os_tsk
 189              		.section	.text.rt_evt_psh,"ax",%progbits
 190              		.align	1
 191              		.global	rt_evt_psh
 192              		.thumb
 193              		.thumb_func
 195              	rt_evt_psh:
 196              		@ args = 0, pretend = 0, frame = 0
 197              		@ frame_needed = 0, uses_anonymous_args = 0
 198 0000 10B5     		push	{r4, lr}
 199 0002 0446     		mov	r4, r0
 200 0004 038B     		ldrh	r3, [r0, #24]
 201 0006 6278     		ldrb	r2, [r4, #1]	@ zero_extendqisi2
 202 0008 1943     		orrs	r1, r1, r3
 203 000a 062A     		cmp	r2, #6
 204 000c 0183     		strh	r1, [r0, #24]	@ movhi
 205 000e 408B     		ldrh	r0, [r0, #26]
 206 0010 04D1     		bne	.L37
 207 0012 01EA0002 		and	r2, r1, r0
 208 0016 8242     		cmp	r2, r0
 209 0018 19D1     		bne	.L36
 210 001a 05E0     		b	.L38
 211              	.L37:
 212 001c 052A     		cmp	r2, #5
 213 001e 16D1     		bne	.L36
 214 0020 11EA0003 		ands	r3, r1, r0
 215 0024 13D0     		beq	.L36
 216 0026 6383     		strh	r3, [r4, #26]	@ movhi
 217              	.L38:
 218 0028 21EA0001 		bic	r1, r1, r0
 219 002c 2183     		strh	r1, [r4, #24]	@ movhi
 220 002e 2046     		mov	r0, r4
 221 0030 FFF7FEFF 		bl	rt_rmv_dly
 222 0034 0121     		movs	r1, #1
 223 0036 6170     		strb	r1, [r4, #1]
 224 0038 2046     		mov	r0, r4
 225 003a 0821     		movs	r1, #8
 226 003c 628B     		ldrh	r2, [r4, #26]
 227 003e FFF7FEFF 		bl	rt_ret_val2
 228 0042 0348     		ldr	r0, .L43
 229 0044 2146     		mov	r1, r4
 230 0046 BDE81040 		pop	{r4, lr}
 231 004a FFF7FEBF 		b	rt_put_prio
 232              	.L36:
 233 004e 10BD     		pop	{r4, pc}
 234              	.L44:
 235              		.align	2
 236              	.L43:
 237 0050 00000000 		.word	os_rdy
 239              		.ident	"GCC: (GNU Tools for ARM Embedded Processors) 4.7.4 20130913 (release) [ARM/embedded-4_7-br