   1              		.syntax unified
   2              		.cpu cortex-m4
   3              		.eabi_attribute 27, 3
   4              		.fpu fpv4-sp-d16
   5              		.eabi_attribute 20, 1
   6              		.eabi_attribute 21, 1
   7              		.eabi_attribute 23, 3
   8              		.eabi_attribute 24, 1
   9              		.eabi_attribute 25, 1
  10              		.eabi_attribute 26, 1
  11              		.eabi_attribute 30, 4
  12              		.eabi_attribute 34, 1
  13              		.eabi_attribute 18, 4
  14              		.thumb
  15              		.file	"rt_Semaphore.c"
  16              		.section	.text.rt_sem_init,"ax",%progbits
  17              		.align	1
  18              		.global	rt_sem_init
  19              		.thumb
  20              		.thumb_func
  22              	rt_sem_init:
  23              		@ args = 0, pretend = 0, frame = 0
  24              		@ frame_needed = 0, uses_anonymous_args = 0
  25              		@ link register save eliminated.
  26 0000 0223     		movs	r3, #2
  27 0002 0022     		movs	r2, #0
  28 0004 0370     		strb	r3, [r0, #0]
  29 0006 4260     		str	r2, [r0, #4]
  30 0008 4180     		strh	r1, [r0, #2]	@ movhi
  31 000a 7047     		bx	lr
  33              		.section	.text.rt_sem_delete,"ax",%progbits
  34              		.align	1
  35              		.global	rt_sem_delete
  36              		.thumb
  37              		.thumb_func
  39              	rt_sem_delete:
  40              		@ args = 0, pretend = 0, frame = 0
  41              		@ frame_needed = 0, uses_anonymous_args = 0
  42 0000 70B5     		push	{r4, r5, r6, lr}
  43 0002 0446     		mov	r4, r0
  44              	.L3:
  45 0004 6568     		ldr	r5, [r4, #4]
  46 0006 85B1     		cbz	r5, .L10
  47              	.L4:
  48 0008 2046     		mov	r0, r4
  49 000a FFF7FEFF 		bl	rt_get_first
  50 000e 0021     		movs	r1, #0
  51 0010 0546     		mov	r5, r0
  52 0012 FFF7FEFF 		bl	rt_ret_val
  53 0016 2846     		mov	r0, r5
  54 0018 FFF7FEFF 		bl	rt_rmv_dly
  55 001c 0122     		movs	r2, #1
  56 001e 6A70     		strb	r2, [r5, #1]
  57 0020 0C48     		ldr	r0, .L11
  58 0022 2946     		mov	r1, r5
  59 0024 FFF7FEFF 		bl	rt_put_prio
  60 0028 ECE7     		b	.L3
  61              	.L10:
  62 002a 0A48     		ldr	r0, .L11
  63 002c 4368     		ldr	r3, [r0, #4]
  64 002e 6BB1     		cbz	r3, .L5
  65 0030 094E     		ldr	r6, .L11+4
  66 0032 9A78     		ldrb	r2, [r3, #2]	@ zero_extendqisi2
  67 0034 3168     		ldr	r1, [r6, #0]
  68 0036 8B78     		ldrb	r3, [r1, #2]	@ zero_extendqisi2
  69 0038 9A42     		cmp	r2, r3
  70 003a 07D9     		bls	.L5
  71 003c FFF7FEFF 		bl	rt_put_prio
  72 0040 3068     		ldr	r0, [r6, #0]
  73 0042 0121     		movs	r1, #1
  74 0044 4170     		strb	r1, [r0, #1]
  75 0046 2846     		mov	r0, r5
  76 0048 FFF7FEFF 		bl	rt_dispatch
  77              	.L5:
  78 004c 0020     		movs	r0, #0
  79 004e 2070     		strb	r0, [r4, #0]
  80 0050 70BD     		pop	{r4, r5, r6, pc}
  81              	.L12:
  82 0052 00BF     		.align	2
  83              	.L11:
  84 0054 00000000 		.word	os_rdy
  85 0058 00000000 		.word	os_tsk
  87              		.section	.text.rt_sem_send,"ax",%progbits
  88              		.align	1
  89              		.global	rt_sem_send
  90              		.thumb
  91              		.thumb_func
  93              	rt_sem_send:
  94              		@ args = 0, pretend = 0, frame = 0
  95              		@ frame_needed = 0, uses_anonymous_args = 0
  96 0000 4268     		ldr	r2, [r0, #4]
  97 0002 10B5     		push	{r4, lr}
  98 0004 0346     		mov	r3, r0
  99 0006 62B1     		cbz	r2, .L14
 100 0008 FFF7FEFF 		bl	rt_get_first
 101 000c 0121     		movs	r1, #1
 102 000e 0446     		mov	r4, r0
 103 0010 FFF7FEFF 		bl	rt_ret_val
 104 0014 2046     		mov	r0, r4
 105 0016 FFF7FEFF 		bl	rt_rmv_dly
 106 001a 2046     		mov	r0, r4
 107 001c FFF7FEFF 		bl	rt_dispatch
 108 0020 02E0     		b	.L15
 109              	.L14:
 110 0022 4088     		ldrh	r0, [r0, #2]
 111 0024 411C     		adds	r1, r0, #1
 112 0026 5980     		strh	r1, [r3, #2]	@ movhi
 113              	.L15:
 114 0028 0020     		movs	r0, #0
 115 002a 10BD     		pop	{r4, pc}
 117              		.section	.text.rt_sem_wait,"ax",%progbits
 118              		.align	1
 119              		.global	rt_sem_wait
 120              		.thumb
 121              		.thumb_func
 123              	rt_sem_wait:
 124              		@ args = 0, pretend = 0, frame = 0
 125              		@ frame_needed = 0, uses_anonymous_args = 0
 126 0000 4288     		ldrh	r2, [r0, #2]
 127 0002 10B5     		push	{r4, lr}
 128 0004 0346     		mov	r3, r0
 129 0006 0C46     		mov	r4, r1
 130 0008 1AB1     		cbz	r2, .L17
 131 000a 511E     		subs	r1, r2, #1
 132 000c 4180     		strh	r1, [r0, #2]	@ movhi
 133 000e 0020     		movs	r0, #0
 134 0010 10BD     		pop	{r4, pc}
 135              	.L17:
 136 0012 71B1     		cbz	r1, .L21
 137 0014 4168     		ldr	r1, [r0, #4]
 138 0016 084A     		ldr	r2, .L22
 139 0018 19B1     		cbz	r1, .L19
 140 001a 1168     		ldr	r1, [r2, #0]
 141 001c FFF7FEFF 		bl	rt_put_prio
 142 0020 03E0     		b	.L20
 143              	.L19:
 144 0022 1068     		ldr	r0, [r2, #0]
 145 0024 5860     		str	r0, [r3, #4]
 146 0026 4160     		str	r1, [r0, #4]
 147 0028 8360     		str	r3, [r0, #8]
 148              	.L20:
 149 002a 2046     		mov	r0, r4
 150 002c 0721     		movs	r1, #7
 151 002e FFF7FEFF 		bl	rt_block
 152              	.L21:
 153 0032 0120     		movs	r0, #1
 154 0034 10BD     		pop	{r4, pc}
 155              	.L23:
 156 0036 00BF     		.align	2
 157              	.L22:
 158 0038 00000000 		.word	os_tsk
 160              		.section	.text.isr_sem_send,"ax",%progbits
 161              		.align	1
 162              		.global	isr_sem_send
 163              		.thumb
 164              		.thumb_func
 166              	isr_sem_send:
 167              		@ args = 0, pretend = 0, frame = 0
 168              		@ frame_needed = 0, uses_anonymous_args = 0
 169 0000 08B5     		push	{r3, lr}
 170 0002 0021     		movs	r1, #0
 171 0004 FFF7FEFF 		bl	rt_psq_enq
 172 0008 BDE80840 		pop	{r3, lr}
 173 000c FFF7FEBF 		b	rt_psh_req
 175              		.section	.text.rt_sem_psh,"ax",%progbits
 176              		.align	1
 177              		.global	rt_sem_psh
 178              		.thumb
 179              		.thumb_func
 181              	rt_sem_psh:
 182              		@ args = 0, pretend = 0, frame = 0
 183              		@ frame_needed = 0, uses_anonymous_args = 0
 184 0000 4268     		ldr	r2, [r0, #4]
 185 0002 10B5     		push	{r4, lr}
 186 0004 0346     		mov	r3, r0
 187 0006 7AB1     		cbz	r2, .L26
 188 0008 FFF7FEFF 		bl	rt_get_first
 189 000c 0446     		mov	r4, r0
 190 000e FFF7FEFF 		bl	rt_rmv_dly
 191 0012 0121     		movs	r1, #1
 192 0014 6170     		strb	r1, [r4, #1]
 193 0016 2046     		mov	r0, r4
 194 0018 FFF7FEFF 		bl	rt_ret_val
 195 001c 0448     		ldr	r0, .L27
 196 001e 2146     		mov	r1, r4
 197 0020 BDE81040 		pop	{r4, lr}
 198 0024 FFF7FEBF 		b	rt_put_prio
 199              	.L26:
 200 0028 4088     		ldrh	r0, [r0, #2]
 201 002a 411C     		adds	r1, r0, #1
 202 002c 5980     		strh	r1, [r3, #2]	@ movhi
 203 002e 10BD     		pop	{r4, pc}
 204              	.L28:
 205              		.align	2
 206              	.L27:
 207 0030 00000000 		.word	os_rdy
 209              		.ident	"GCC: (GNU Tools for ARM Embedded Processors) 4.7.4 20130913 (release) [ARM/embedded-4_7-br