   1              		.syntax unified
   2              		.cpu cortex-m4
   3              		.eabi_attribute 27, 3
   4              		.fpu fpv4-sp-d16
   5              		.eabi_attribute 20, 1
   6              		.eabi_attribute 21, 1
   7              		.eabi_attribute 23, 3
   8              		.eabi_attribute 24, 1
   9              		.eabi_attribute 25, 1
  10              		.eabi_attribute 26, 1
  11              		.eabi_attribute 30, 4
  12              		.eabi_attribute 34, 1
  13              		.eabi_attribute 18, 4
  14              		.thumb
  15              		.file	"rt_System.c"
  16              		.section	.text.rt_tsk_lock,"ax",%progbits
  17              		.align	1
  18              		.global	rt_tsk_lock
  19              		.thumb
  20              		.thumb_func
  22              	rt_tsk_lock:
  23              		@ args = 0, pretend = 0, frame = 0
  24              		@ frame_needed = 0, uses_anonymous_args = 0
  25 0000 124B     		ldr	r3, .L6
  26 0002 1A68     		ldr	r2, [r3, #0]
  27 0004 124B     		ldr	r3, .L6+4
  28 0006 002A     		cmp	r2, #0
  29 0008 10B5     		push	{r4, lr}
  30 000a 0CDA     		bge	.L2
  31 000c 114A     		ldr	r2, .L6+8
  32 000e 0521     		movs	r1, #5
  33 0010 1160     		str	r1, [r2, #0]
  34 0012 0120     		movs	r0, #1
  35 0014 104A     		ldr	r2, .L6+12
  36 0016 1870     		strb	r0, [r3, #0]
  37 0018 1168     		ldr	r1, [r2, #0]
  38 001a 880E     		lsrs	r0, r1, #26
  39 001c 00F00501 		and	r1, r0, #5
  40 0020 5970     		strb	r1, [r3, #1]
  41 0022 4B06     		lsls	r3, r1, #25
  42 0024 0FE0     		b	.L4
  43              	.L2:
  44 0026 0121     		movs	r1, #1
  45 0028 02F01F00 		and	r0, r2, #31
  46 002c 5411     		asrs	r4, r2, #5
  47 002e 01FA00F2 		lsl	r2, r1, r0
  48 0032 0A48     		ldr	r0, .L6+16
  49 0034 40F82420 		str	r2, [r0, r4, lsl #2]
  50 0038 074A     		ldr	r2, .L6+12
  51 003a 1970     		strb	r1, [r3, #0]
  52 003c 1168     		ldr	r1, [r2, #0]
  53 003e C1F30070 		ubfx	r0, r1, #28, #1
  54 0042 5870     		strb	r0, [r3, #1]
  55 0044 C306     		lsls	r3, r0, #27
  56              	.L4:
  57 0046 1360     		str	r3, [r2, #0]
  58 0048 10BD     		pop	{r4, pc}
  59              	.L7:
  60 004a 00BF     		.align	2
  61              	.L6:
  62 004c 00000000 		.word	os_tick_irqn
  63 0050 00000000 		.word	.LANCHOR0
  64 0054 10E000E0 		.word	-536813552
  65 0058 04ED00E0 		.word	-536810236
  66 005c 80E100E0 		.word	-536813184
  68              		.section	.text.rt_suspend,"ax",%progbits
  69              		.align	1
  70              		.global	rt_suspend
  71              		.thumb
  72              		.thumb_func
  74              	rt_suspend:
  75              		@ args = 0, pretend = 0, frame = 0
  76              		@ frame_needed = 0, uses_anonymous_args = 0
  77 0000 10B5     		push	{r4, lr}
  78 0002 FFF7FEFF 		bl	rt_tsk_lock
  79 0006 064B     		ldr	r3, .L11
  80 0008 DA68     		ldr	r2, [r3, #12]
  81 000a 0AB1     		cbz	r2, .L10
  82 000c 9C8A     		ldrh	r4, [r3, #20]
  83 000e 01E0     		b	.L9
  84              	.L10:
  85 0010 4FF6FF74 		movw	r4, #65535
  86              	.L9:
  87 0014 FFF7FEFF 		bl	sysUserTimerWakeupTime
  88 0018 A042     		cmp	r0, r4
  89 001a 28BF     		it	cs
  90 001c 2046     		movcs	r0, r4
  91 001e 10BD     		pop	{r4, pc}
  92              	.L12:
  93              		.align	2
  94              	.L11:
  95 0020 00000000 		.word	os_dly
  97              		.section	.text.rt_tsk_unlock,"ax",%progbits
  98              		.align	1
  99              		.global	rt_tsk_unlock
 100              		.thumb
 101              		.thumb_func
 103              	rt_tsk_unlock:
 104              		@ args = 0, pretend = 0, frame = 0
 105              		@ frame_needed = 0, uses_anonymous_args = 0
 106              		@ link register save eliminated.
 107 0000 134B     		ldr	r3, .L17
 108 0002 1868     		ldr	r0, [r3, #0]
 109 0004 0028     		cmp	r0, #0
 110 0006 0BDA     		bge	.L14
 111 0008 124B     		ldr	r3, .L17+4
 112 000a 0722     		movs	r2, #7
 113 000c 1A60     		str	r2, [r3, #0]
 114 000e 124B     		ldr	r3, .L17+8
 115 0010 0022     		movs	r2, #0
 116 0012 1A70     		strb	r2, [r3, #0]
 117 0014 9878     		ldrb	r0, [r3, #2]	@ zero_extendqisi2
 118 0016 5978     		ldrb	r1, [r3, #1]	@ zero_extendqisi2
 119 0018 41EA8000 		orr	r0, r1, r0, lsl #2
 120 001c 8006     		lsls	r0, r0, #26
 121 001e 12E0     		b	.L16
 122              	.L14:
 123 0020 4211     		asrs	r2, r0, #5
 124 0022 9100     		lsls	r1, r2, #2
 125 0024 01F16043 		add	r3, r1, #-536870912
 126 0028 03F56142 		add	r2, r3, #57600
 127 002c 00F01F00 		and	r0, r0, #31
 128 0030 0121     		movs	r1, #1
 129 0032 01FA00F3 		lsl	r3, r1, r0
 130 0036 1360     		str	r3, [r2, #0]
 131 0038 074B     		ldr	r3, .L17+8
 132 003a 0022     		movs	r2, #0
 133 003c 1A70     		strb	r2, [r3, #0]
 134 003e 9878     		ldrb	r0, [r3, #2]	@ zero_extendqisi2
 135 0040 5978     		ldrb	r1, [r3, #1]	@ zero_extendqisi2
 136 0042 0843     		orrs	r0, r0, r1
 137 0044 0007     		lsls	r0, r0, #28
 138              	.L16:
 139 0046 0549     		ldr	r1, .L17+12
 140 0048 0860     		str	r0, [r1, #0]
 141 004a 9A70     		strb	r2, [r3, #2]
 142 004c 7047     		bx	lr
 143              	.L18:
 144 004e 00BF     		.align	2
 145              	.L17:
 146 0050 00000000 		.word	os_tick_irqn
 147 0054 10E000E0 		.word	-536813552
 148 0058 00000000 		.word	.LANCHOR0
 149 005c 04ED00E0 		.word	-536810236
 151              		.section	.text.rt_resume,"ax",%progbits
 152              		.align	1
 153              		.global	rt_resume
 154              		.thumb
 155              		.thumb_func
 157              	rt_resume:
 158              		@ args = 0, pretend = 0, frame = 0
 159              		@ frame_needed = 0, uses_anonymous_args = 0
 160 0000 1B4B     		ldr	r3, .L27
 161 0002 70B5     		push	{r4, r5, r6, lr}
 162 0004 0446     		mov	r4, r0
 163 0006 1868     		ldr	r0, [r3, #0]
 164 0008 0126     		movs	r6, #1
 165 000a 4670     		strb	r6, [r0, #1]
 166 000c FFF7FEFF 		bl	rt_put_rdy_first
 167 0010 1848     		ldr	r0, .L27+4
 168 0012 194B     		ldr	r3, .L27+8
 169 0014 0022     		movs	r2, #0
 170 0016 0260     		str	r2, [r0, #0]
 171 0018 184A     		ldr	r2, .L27+12
 172 001a D168     		ldr	r1, [r2, #12]
 173 001c C9B1     		cbz	r1, .L20
 174 001e 918A     		ldrh	r1, [r2, #20]
 175 0020 8C42     		cmp	r4, r1
 176 0022 10D3     		bcc	.L21
 177 0024 1868     		ldr	r0, [r3, #0]
 178 0026 9682     		strh	r6, [r2, #20]	@ movhi
 179 0028 651A     		subs	r5, r4, r1
 180 002a 0918     		adds	r1, r1, r0
 181 002c 1960     		str	r1, [r3, #0]
 182              	.L22:
 183 002e 134A     		ldr	r2, .L27+12
 184 0030 D368     		ldr	r3, [r2, #12]
 185 0032 8BB1     		cbz	r3, .L24
 186              	.L25:
 187 0034 FFF7FEFF 		bl	rt_dec_dly
 188 0038 75B1     		cbz	r5, .L24
 189 003a 0F48     		ldr	r0, .L27+8
 190 003c 0168     		ldr	r1, [r0, #0]
 191 003e 4A1C     		adds	r2, r1, #1
 192 0040 013D     		subs	r5, r5, #1
 193 0042 0260     		str	r2, [r0, #0]
 194 0044 F3E7     		b	.L22
 195              	.L21:
 196 0046 1868     		ldr	r0, [r3, #0]
 197 0048 2018     		adds	r0, r4, r0
 198 004a 1860     		str	r0, [r3, #0]
 199 004c 0B1B     		subs	r3, r1, r4
 200 004e 9382     		strh	r3, [r2, #20]	@ movhi
 201 0050 02E0     		b	.L24
 202              	.L20:
 203 0052 1868     		ldr	r0, [r3, #0]
 204 0054 2218     		adds	r2, r4, r0
 205 0056 1A60     		str	r2, [r3, #0]
 206              	.L24:
 207 0058 2046     		mov	r0, r4
 208 005a FFF7FEFF 		bl	sysUserTimerUpdate
 209 005e 0848     		ldr	r0, .L27+16
 210 0060 FFF7FEFF 		bl	rt_get_first
 211 0064 FFF7FEFF 		bl	rt_switch_req
 212 0068 BDE87040 		pop	{r4, r5, r6, lr}
 213 006c FFF7FEBF 		b	rt_tsk_unlock
 214              	.L28:
 215              		.align	2
 216              	.L27:
 217 0070 00000000 		.word	os_tsk
 218 0074 00000000 		.word	os_robin
 219 0078 00000000 		.word	os_time
 220 007c 00000000 		.word	os_dly
 221 0080 00000000 		.word	os_rdy
 223              		.section	.text.rt_psh_req,"ax",%progbits
 224              		.align	1
 225              		.global	rt_psh_req
 226              		.thumb
 227              		.thumb_func
 229              	rt_psh_req:
 230              		@ args = 0, pretend = 0, frame = 0
 231              		@ frame_needed = 0, uses_anonymous_args = 0
 232              		@ link register save eliminated.
 233 0000 054B     		ldr	r3, .L32
 234 0002 1A78     		ldrb	r2, [r3, #0]	@ zero_extendqisi2
 235 0004 22B9     		cbnz	r2, .L30
 236 0006 054B     		ldr	r3, .L32+4
 237 0008 4FF08051 		mov	r1, #268435456
 238 000c 1960     		str	r1, [r3, #0]
 239 000e 7047     		bx	lr
 240              	.L30:
 241 0010 0120     		movs	r0, #1
 242 0012 9870     		strb	r0, [r3, #2]
 243 0014 7047     		bx	lr
 244              	.L33:
 245 0016 00BF     		.align	2
 246              	.L32:
 247 0018 00000000 		.word	.LANCHOR0
 248 001c 04ED00E0 		.word	-536810236
 250              		.section	.text.rt_pop_req,"ax",%progbits
 251              		.align	1
 252              		.global	rt_pop_req
 253              		.thumb
 254              		.thumb_func
 256              	rt_pop_req:
 257              		@ args = 0, pretend = 0, frame = 0
 258              		@ frame_needed = 0, uses_anonymous_args = 0
 259 0000 194B     		ldr	r3, .L43
 260 0002 1868     		ldr	r0, [r3, #0]
 261 0004 0121     		movs	r1, #1
 262 0006 10B5     		push	{r4, lr}
 263 0008 4170     		strb	r1, [r0, #1]
 264 000a FFF7FEFF 		bl	rt_put_rdy_first
 265 000e 1748     		ldr	r0, .L43+4
 266 0010 4478     		ldrb	r4, [r0, #1]	@ zero_extendqisi2
 267              	.L35:
 268 0012 164B     		ldr	r3, .L43+4
 269 0014 9A78     		ldrb	r2, [r3, #2]	@ zero_extendqisi2
 270 0016 F2B1     		cbz	r2, .L42
 271              	.L40:
 272 0018 03EBC401 		add	r1, r3, r4, lsl #3
 273 001c 4868     		ldr	r0, [r1, #4]
 274 001e 0378     		ldrb	r3, [r0, #0]	@ zero_extendqisi2
 275 0020 1BB9     		cbnz	r3, .L36
 276 0022 0989     		ldrh	r1, [r1, #8]
 277 0024 FFF7FEFF 		bl	rt_evt_psh
 278 0028 07E0     		b	.L37
 279              	.L36:
 280 002a 012B     		cmp	r3, #1
 281 002c 03D1     		bne	.L38
 282 002e 8968     		ldr	r1, [r1, #8]
 283 0030 FFF7FEFF 		bl	rt_mbx_psh
 284 0034 01E0     		b	.L37
 285              	.L38:
 286 0036 FFF7FEFF 		bl	rt_sem_psh
 287              	.L37:
 288 003a 0C48     		ldr	r0, .L43+4
 289 003c C278     		ldrb	r2, [r0, #3]	@ zero_extendqisi2
 290 003e 0134     		adds	r4, r4, #1
 291 0040 9442     		cmp	r4, r2
 292 0042 08BF     		it	eq
 293 0044 0024     		moveq	r4, #0
 294              	@ 79 "../Dave/Generated/src/RTOS001/SRC/rt_HAL_CM.h" 1
 295 0046 EFF31082 		mrs r2, primask
 296              	@ 0 "" 2
 297              	@ 80 "../Dave/Generated/src/RTOS001/SRC/rt_HAL_CM.h" 1
 298 004a 72B6     		cpsid i
 299              	@ 0 "" 2
 300              		.thumb
 301 004c 8178     		ldrb	r1, [r0, #2]	@ zero_extendqisi2
 302 004e 4B1E     		subs	r3, r1, #1
 303 0050 8370     		strb	r3, [r0, #2]
 304              	@ 72 "../Dave/Generated/src/RTOS001/SRC/rt_HAL_CM.h" 1
 305 0052 62B6     		cpsie i
 306              	@ 0 "" 2
 307              		.thumb
 308 0054 DDE7     		b	.L35
 309              	.L42:
 310 0056 5C70     		strb	r4, [r3, #1]
 311 0058 0548     		ldr	r0, .L43+8
 312 005a FFF7FEFF 		bl	rt_get_first
 313 005e BDE81040 		pop	{r4, lr}
 314 0062 FFF7FEBF 		b	rt_switch_req
 315              	.L44:
 316 0066 00BF     		.align	2
 317              	.L43:
 318 0068 00000000 		.word	os_tsk
 319 006c 00000000 		.word	os_fifo
 320 0070 00000000 		.word	os_rdy
 322              		.section	.text.os_tick_init,"ax",%progbits
 323              		.align	1
 324              		.weak	os_tick_init
 325              		.thumb
 326              		.thumb_func
 328              	os_tick_init:
 329              		@ args = 0, pretend = 0, frame = 0
 330              		@ frame_needed = 0, uses_anonymous_args = 0
 331              		@ link register save eliminated.
 332 0000 084B     		ldr	r3, .L46
 333 0002 0948     		ldr	r0, .L46+4
 334 0004 1A68     		ldr	r2, [r3, #0]
 335 0006 0021     		movs	r1, #0
 336 0008 0723     		movs	r3, #7
 337 000a 0260     		str	r2, [r0, #0]
 338 000c 4160     		str	r1, [r0, #4]
 339 000e 40F8043C 		str	r3, [r0, #-4]
 340 0012 D0F80C2D 		ldr	r2, [r0, #3340]
 341 0016 42F07F41 		orr	r1, r2, #-16777216
 342 001a C0F80C1D 		str	r1, [r0, #3340]
 343 001e 4FF0FF30 		mov	r0, #-1
 344 0022 7047     		bx	lr
 345              	.L47:
 346              		.align	2
 347              	.L46:
 348 0024 00000000 		.word	os_trv
 349 0028 14E000E0 		.word	-536813548
 351              		.section	.text.os_tick_val,"ax",%progbits
 352              		.align	1
 353              		.weak	os_tick_val
 354              		.thumb
 355              		.thumb_func
 357              	os_tick_val:
 358              		@ args = 0, pretend = 0, frame = 0
 359              		@ frame_needed = 0, uses_anonymous_args = 0
 360              		@ link register save eliminated.
 361 0000 024B     		ldr	r3, .L49
 362 0002 034A     		ldr	r2, .L49+4
 363 0004 1968     		ldr	r1, [r3, #0]
 364 0006 1068     		ldr	r0, [r2, #0]
 365 0008 401A     		subs	r0, r0, r1
 366 000a 7047     		bx	lr
 367              	.L50:
 368              		.align	2
 369              	.L49:
 370 000c 18E000E0 		.word	-536813544
 371 0010 00000000 		.word	os_trv
 373              		.section	.text.os_tick_ovf,"ax",%progbits
 374              		.align	1
 375              		.weak	os_tick_ovf
 376              		.thumb
 377              		.thumb_func
 379              	os_tick_ovf:
 380              		@ args = 0, pretend = 0, frame = 0
 381              		@ frame_needed = 0, uses_anonymous_args = 0
 382              		@ link register save eliminated.
 383 0000 024B     		ldr	r3, .L52
 384 0002 1868     		ldr	r0, [r3, #0]
 385 0004 C0F38060 		ubfx	r0, r0, #26, #1
 386 0008 7047     		bx	lr
 387              	.L53:
 388 000a 00BF     		.align	2
 389              	.L52:
 390 000c 04ED00E0 		.word	-536810236
 392              		.section	.text.os_tick_irqack,"ax",%progbits
 393              		.align	1
 394              		.weak	os_tick_irqack
 395              		.thumb
 396              		.thumb_func
 398              	os_tick_irqack:
 399              		@ args = 0, pretend = 0, frame = 0
 400              		@ frame_needed = 0, uses_anonymous_args = 0
 401              		@ link register save eliminated.
 402 0000 7047     		bx	lr
 404              		.section	.text.rt_systick,"ax",%progbits
 405              		.align	1
 406              		.global	rt_systick
 407              		.thumb
 408              		.thumb_func
 410              	rt_systick:
 411              		@ args = 0, pretend = 0, frame = 0
 412              		@ frame_needed = 0, uses_anonymous_args = 0
 413 0000 08B5     		push	{r3, lr}
 414 0002 0B4B     		ldr	r3, .L56
 415 0004 1868     		ldr	r0, [r3, #0]
 416 0006 0121     		movs	r1, #1
 417 0008 4170     		strb	r1, [r0, #1]
 418 000a FFF7FEFF 		bl	rt_put_rdy_first
 419 000e FFF7FEFF 		bl	rt_chk_robin
 420 0012 0848     		ldr	r0, .L56+4
 421 0014 0268     		ldr	r2, [r0, #0]
 422 0016 531C     		adds	r3, r2, #1
 423 0018 0360     		str	r3, [r0, #0]
 424 001a FFF7FEFF 		bl	rt_dec_dly
 425 001e FFF7FEFF 		bl	sysTimerTick
 426 0022 0548     		ldr	r0, .L56+8
 427 0024 FFF7FEFF 		bl	rt_get_first
 428 0028 BDE80840 		pop	{r3, lr}
 429 002c FFF7FEBF 		b	rt_switch_req
 430              	.L57:
 431              		.align	2
 432              	.L56:
 433 0030 00000000 		.word	os_tsk
 434 0034 00000000 		.word	os_time
 435 0038 00000000 		.word	os_rdy
 437              		.section	.text.rt_stk_check,"ax",%progbits
 438              		.align	1
 439              		.weak	rt_stk_check
 440              		.thumb
 441              		.thumb_func
 443              	rt_stk_check:
 444              		@ args = 0, pretend = 0, frame = 0
 445              		@ frame_needed = 0, uses_anonymous_args = 0
 446              		@ link register save eliminated.
 447 0000 064B     		ldr	r3, .L61
 448 0002 1A68     		ldr	r2, [r3, #0]
 449 0004 D06A     		ldr	r0, [r2, #44]
 450 0006 916A     		ldr	r1, [r2, #40]
 451 0008 8842     		cmp	r0, r1
 452 000a 03D8     		bhi	.L59
 453 000c 0268     		ldr	r2, [r0, #0]
 454 000e 044B     		ldr	r3, .L61+4
 455 0010 9A42     		cmp	r2, r3
 456 0012 02D0     		beq	.L58
 457              	.L59:
 458 0014 0120     		movs	r0, #1
 459 0016 FFF7FEBF 		b	os_error
 460              	.L58:
 461 001a 7047     		bx	lr
 462              	.L62:
 463              		.align	2
 464              	.L61:
 465 001c 00000000 		.word	os_tsk
 466 0020 A52E5AE2 		.word	-497406299
 468              		.comm	os_tick_irqn,4,4
 469              		.bss
 470              		.set	.LANCHOR0,. + 0
 473              	os_lock:
 474 0000 00       		.space	1
 477              	pend_flags:
 478 0001 00       		.space	1
 481              	os_psh_flag:
 482 0002 00       		.space	1
 483              		.ident	"GCC: (GNU Tools for ARM Embedded Processors) 4.7.4 20130913 (release) [ARM/embedded-4_7-br