   1              		.syntax unified
   2              		.cpu cortex-m4
   3              		.eabi_attribute 27, 3
   4              		.fpu fpv4-sp-d16
   5              		.eabi_attribute 20, 1
   6              		.eabi_attribute 21, 1
   7              		.eabi_attribute 23, 3
   8              		.eabi_attribute 24, 1
   9              		.eabi_attribute 25, 1
  10              		.eabi_attribute 26, 1
  11              		.eabi_attribute 30, 4
  12              		.eabi_attribute 34, 1
  13              		.eabi_attribute 18, 4
  14              		.thumb
  15              		.file	"rt_Timer.c"
  16              		.section	.text.rt_tmr_tick,"ax",%progbits
  17              		.align	1
  18              		.global	rt_tmr_tick
  19              		.thumb
  20              		.thumb_func
  22              	rt_tmr_tick:
  23              		@ args = 0, pretend = 0, frame = 0
  24              		@ frame_needed = 0, uses_anonymous_args = 0
  25 0000 38B5     		push	{r3, r4, r5, lr}
  26 0002 0C4B     		ldr	r3, .L7
  27 0004 1A68     		ldr	r2, [r3, #0]
  28 0006 A2B1     		cbz	r2, .L1
  29 0008 9888     		ldrh	r0, [r3, #4]
  30 000a 411E     		subs	r1, r0, #1
  31 000c 9980     		strh	r1, [r3, #4]	@ movhi
  32              	.L3:
  33 000e 094D     		ldr	r5, .L7
  34 0010 AB88     		ldrh	r3, [r5, #4]
  35 0012 73B9     		cbnz	r3, .L1
  36 0014 2C68     		ldr	r4, [r5, #0]
  37 0016 64B1     		cbz	r4, .L1
  38              	.L5:
  39 0018 E088     		ldrh	r0, [r4, #6]
  40 001a FFF7FEFF 		bl	os_tmr_call
  41 001e 2068     		ldr	r0, [r4, #0]
  42 0020 A288     		ldrh	r2, [r4, #4]
  43 0022 2860     		str	r0, [r5, #0]
  44 0024 AA80     		strh	r2, [r5, #4]	@ movhi
  45 0026 044D     		ldr	r5, .L7+4
  46 0028 2146     		mov	r1, r4
  47 002a 2868     		ldr	r0, [r5, #0]
  48 002c FFF7FEFF 		bl	rt_free_box
  49 0030 EDE7     		b	.L3
  50              	.L1:
  51 0032 38BD     		pop	{r3, r4, r5, pc}
  52              	.L8:
  53              		.align	2
  54              	.L7:
  55 0034 00000000 		.word	os_tmr
  56 0038 00000000 		.word	m_tmr
  58              		.section	.text.rt_tmr_create,"ax",%progbits
  59              		.align	1
  60              		.global	rt_tmr_create
  61              		.thumb
  62              		.thumb_func
  64              	rt_tmr_create:
  65              		@ args = 0, pretend = 0, frame = 0
  66              		@ frame_needed = 0, uses_anonymous_args = 0
  67 0000 38B5     		push	{r3, r4, r5, lr}
  68 0002 0D46     		mov	r5, r1
  69 0004 0446     		mov	r4, r0
  70 0006 08B9     		cbnz	r0, .L10
  71              	.L12:
  72 0008 0020     		movs	r0, #0
  73 000a 38BD     		pop	{r3, r4, r5, pc}
  74              	.L10:
  75 000c 0E4B     		ldr	r3, .L23
  76 000e 1868     		ldr	r0, [r3, #0]
  77 0010 0028     		cmp	r0, #0
  78 0012 F9D0     		beq	.L12
  79 0014 FFF7FEFF 		bl	rt_alloc_box
  80 0018 0028     		cmp	r0, #0
  81 001a F5D0     		beq	.L12
  82 001c 0B4B     		ldr	r3, .L23+4
  83 001e C580     		strh	r5, [r0, #6]	@ movhi
  84 0020 9A88     		ldrh	r2, [r3, #4]
  85              	.L13:
  86 0022 A242     		cmp	r2, r4
  87 0024 09D3     		bcc	.L14
  88              	.L16:
  89 0026 1968     		ldr	r1, [r3, #0]
  90 0028 121B     		subs	r2, r2, r4
  91 002a 0160     		str	r1, [r0, #0]
  92 002c 91B2     		uxth	r1, r2
  93 002e 8180     		strh	r1, [r0, #4]	@ movhi
  94 0030 9C88     		ldrh	r4, [r3, #4]
  95 0032 1860     		str	r0, [r3, #0]
  96 0034 621A     		subs	r2, r4, r1
  97 0036 9A80     		strh	r2, [r3, #4]	@ movhi
  98 0038 38BD     		pop	{r3, r4, r5, pc}
  99              	.L14:
 100 003a 1968     		ldr	r1, [r3, #0]
 101 003c 0029     		cmp	r1, #0
 102 003e F2D0     		beq	.L16
 103              	.L15:
 104 0040 8B88     		ldrh	r3, [r1, #4]
 105 0042 D218     		adds	r2, r2, r3
 106 0044 0B46     		mov	r3, r1
 107 0046 ECE7     		b	.L13
 108              	.L24:
 109              		.align	2
 110              	.L23:
 111 0048 00000000 		.word	m_tmr
 112 004c 00000000 		.word	os_tmr
 114              		.section	.text.rt_tmr_kill,"ax",%progbits
 115              		.align	1
 116              		.global	rt_tmr_kill
 117              		.thumb
 118              		.thumb_func
 120              	rt_tmr_kill:
 121              		@ args = 0, pretend = 0, frame = 0
 122              		@ frame_needed = 0, uses_anonymous_args = 0
 123 0000 08B5     		push	{r3, lr}
 124 0002 0B4B     		ldr	r3, .L31
 125 0004 0146     		mov	r1, r0
 126              	.L26:
 127 0006 1A68     		ldr	r2, [r3, #0]
 128 0008 8A42     		cmp	r2, r1
 129 000a 04D0     		beq	.L30
 130              	.L28:
 131 000c 1346     		mov	r3, r2
 132 000e 002A     		cmp	r2, #0
 133 0010 F9D1     		bne	.L26
 134              	.L29:
 135 0012 0846     		mov	r0, r1
 136 0014 08BD     		pop	{r3, pc}
 137              	.L30:
 138 0016 0868     		ldr	r0, [r1, #0]
 139 0018 9A88     		ldrh	r2, [r3, #4]
 140 001a 1860     		str	r0, [r3, #0]
 141 001c 8888     		ldrh	r0, [r1, #4]
 142 001e 8018     		adds	r0, r0, r2
 143 0020 9880     		strh	r0, [r3, #4]	@ movhi
 144 0022 044B     		ldr	r3, .L31+4
 145 0024 1868     		ldr	r0, [r3, #0]
 146 0026 FFF7FEFF 		bl	rt_free_box
 147 002a 0020     		movs	r0, #0
 148 002c 08BD     		pop	{r3, pc}
 149              	.L32:
 150 002e 00BF     		.align	2
 151              	.L31:
 152 0030 00000000 		.word	os_tmr
 153 0034 00000000 		.word	m_tmr
 155              		.comm	os_tmr,8,4
 156              		.ident	"GCC: (GNU Tools for ARM Embedded Processors) 4.7.4 20130913 (release) [ARM/embedded-4_7-br