   1              		.syntax unified
   2              		.cpu cortex-m4
   3              		.eabi_attribute 27, 3
   4              		.fpu fpv4-sp-d16
   5              		.eabi_attribute 20, 1
   6              		.eabi_attribute 21, 1
   7              		.eabi_attribute 23, 3
   8              		.eabi_attribute 24, 1
   9              		.eabi_attribute 25, 1
  10              		.eabi_attribute 26, 1
  11              		.eabi_attribute 30, 6
  12              		.eabi_attribute 34, 1
  13              		.eabi_attribute 18, 4
  14              		.thumb
  15              		.file	"rt_CMSIS.c"
  16              		.text
  17              	.Ltext0:
  18              		.cfi_sections	.debug_frame
  19              		.section	.text.rt_ms2tick,"ax",%progbits
  20              		.align	2
  21              		.thumb
  22              		.thumb_func
  24              	rt_ms2tick:
  25              	.LFB101:
  26              		.file 1 "../Dave/Generated/src/RTOS001/SRC/rt_CMSIS.c"
   1:../Dave/Generated/src/RTOS001/SRC/rt_CMSIS.c **** /*******************************************************************************
   2:../Dave/Generated/src/RTOS001/SRC/rt_CMSIS.c **** **  DAVE App Name : RTOS001       App Version: 1.0.24               
   3:../Dave/Generated/src/RTOS001/SRC/rt_CMSIS.c **** **  This file is generated by DAVE, User modification to this file will be    **
   4:../Dave/Generated/src/RTOS001/SRC/rt_CMSIS.c **** **  overwritten at the next code generation.                                  **
   5:../Dave/Generated/src/RTOS001/SRC/rt_CMSIS.c **** *******************************************************************************/
   6:../Dave/Generated/src/RTOS001/SRC/rt_CMSIS.c **** 
   7:../Dave/Generated/src/RTOS001/SRC/rt_CMSIS.c **** /*----------------------------------------------------------------------------
   8:../Dave/Generated/src/RTOS001/SRC/rt_CMSIS.c ****  *      RL-ARM - RTX
   9:../Dave/Generated/src/RTOS001/SRC/rt_CMSIS.c ****  *----------------------------------------------------------------------------
  10:../Dave/Generated/src/RTOS001/SRC/rt_CMSIS.c ****  *      Name:    rt_CMSIS.c
  11:../Dave/Generated/src/RTOS001/SRC/rt_CMSIS.c ****  *      Purpose: CMSIS RTOS API
  12:../Dave/Generated/src/RTOS001/SRC/rt_CMSIS.c ****  *      Rev.:    V4.74
  13:../Dave/Generated/src/RTOS001/SRC/rt_CMSIS.c ****  *----------------------------------------------------------------------------
  14:../Dave/Generated/src/RTOS001/SRC/rt_CMSIS.c ****  *
  15:../Dave/Generated/src/RTOS001/SRC/rt_CMSIS.c ****  * Copyright (c) 1999-2009 KEIL, 2009-2013 ARM Germany GmbH
  16:../Dave/Generated/src/RTOS001/SRC/rt_CMSIS.c ****  * All rights reserved.
  17:../Dave/Generated/src/RTOS001/SRC/rt_CMSIS.c ****  * Redistribution and use in source and binary forms, with or without
  18:../Dave/Generated/src/RTOS001/SRC/rt_CMSIS.c ****  * modification, are permitted provided that the following conditions are met:
  19:../Dave/Generated/src/RTOS001/SRC/rt_CMSIS.c ****  *  - Redistributions of source code must retain the above copyright
  20:../Dave/Generated/src/RTOS001/SRC/rt_CMSIS.c ****  *    notice, this list of conditions and the following disclaimer.
  21:../Dave/Generated/src/RTOS001/SRC/rt_CMSIS.c ****  *  - Redistributions in binary form must reproduce the above copyright
  22:../Dave/Generated/src/RTOS001/SRC/rt_CMSIS.c ****  *    notice, this list of conditions and the following disclaimer in the
  23:../Dave/Generated/src/RTOS001/SRC/rt_CMSIS.c ****  *    documentation and/or other materials provided with the distribution.
  24:../Dave/Generated/src/RTOS001/SRC/rt_CMSIS.c ****  *  - Neither the name of ARM  nor the names of its contributors may be used 
  25:../Dave/Generated/src/RTOS001/SRC/rt_CMSIS.c ****  *    to endorse or promote products derived from this software without 
  26:../Dave/Generated/src/RTOS001/SRC/rt_CMSIS.c ****  *    specific prior written permission.
  27:../Dave/Generated/src/RTOS001/SRC/rt_CMSIS.c ****  *
  28:../Dave/Generated/src/RTOS001/SRC/rt_CMSIS.c ****  * THIS SOFTWARE IS PROVIDED BY THE COPYRIGHT HOLDERS AND CONTRIBUTORS "AS IS" 
  29:../Dave/Generated/src/RTOS001/SRC/rt_CMSIS.c ****  * AND ANY EXPRESS OR IMPLIED WARRANTIES, INCLUDING, BUT NOT LIMITED TO, THE 
  30:../Dave/Generated/src/RTOS001/SRC/rt_CMSIS.c ****  * IMPLIED WARRANTIES OF MERCHANTABILITY AND FITNESS FOR A PARTICULAR PURPOSE
  31:../Dave/Generated/src/RTOS001/SRC/rt_CMSIS.c ****  * ARE DISCLAIMED. IN NO EVENT SHALL COPYRIGHT HOLDERS AND CONTRIBUTORS BE
  32:../Dave/Generated/src/RTOS001/SRC/rt_CMSIS.c ****  * LIABLE FOR ANY DIRECT, INDIRECT, INCIDENTAL, SPECIAL, EXEMPLARY, OR
  33:../Dave/Generated/src/RTOS001/SRC/rt_CMSIS.c ****  * CONSEQUENTIAL DAMAGES (INCLUDING, BUT NOT LIMITED TO, PROCUREMENT OF 
  34:../Dave/Generated/src/RTOS001/SRC/rt_CMSIS.c ****  * SUBSTITUTE GOODS OR SERVICES; LOSS OF USE, DATA, OR PROFITS; OR BUSINESS 
  35:../Dave/Generated/src/RTOS001/SRC/rt_CMSIS.c ****  * INTERRUPTION) HOWEVER CAUSED AND ON ANY THEORY OF LIABILITY, WHETHER IN 
  36:../Dave/Generated/src/RTOS001/SRC/rt_CMSIS.c ****  * CONTRACT, STRICT LIABILITY, OR TORT (INCLUDING NEGLIGENCE OR OTHERWISE) 
  37:../Dave/Generated/src/RTOS001/SRC/rt_CMSIS.c ****  * ARISING IN ANY WAY OUT OF THE USE OF THIS SOFTWARE, EVEN IF ADVISED OF THE
  38:../Dave/Generated/src/RTOS001/SRC/rt_CMSIS.c ****  * POSSIBILITY OF SUCH DAMAGE.
  39:../Dave/Generated/src/RTOS001/SRC/rt_CMSIS.c ****  *---------------------------------------------------------------------------*/
  40:../Dave/Generated/src/RTOS001/SRC/rt_CMSIS.c **** 
  41:../Dave/Generated/src/RTOS001/SRC/rt_CMSIS.c **** #ifdef __GNUC__
  42:../Dave/Generated/src/RTOS001/SRC/rt_CMSIS.c **** #pragma GCC optimize("-O1")
  43:../Dave/Generated/src/RTOS001/SRC/rt_CMSIS.c **** #endif
  44:../Dave/Generated/src/RTOS001/SRC/rt_CMSIS.c **** 
  45:../Dave/Generated/src/RTOS001/SRC/rt_CMSIS.c **** #define __CMSIS_GENERIC
  46:../Dave/Generated/src/RTOS001/SRC/rt_CMSIS.c **** 
  47:../Dave/Generated/src/RTOS001/SRC/rt_CMSIS.c **** #ifndef __FPU_PRESENT
  48:../Dave/Generated/src/RTOS001/SRC/rt_CMSIS.c **** #define __FPU_PRESENT 1
  49:../Dave/Generated/src/RTOS001/SRC/rt_CMSIS.c **** #endif
  50:../Dave/Generated/src/RTOS001/SRC/rt_CMSIS.c **** #include "core_cm4.h"
  51:../Dave/Generated/src/RTOS001/SRC/rt_CMSIS.c ****  
  52:../Dave/Generated/src/RTOS001/SRC/rt_CMSIS.c **** #include "rt_TypeDef.h"
  53:../Dave/Generated/src/RTOS001/SRC/rt_CMSIS.c **** #include "RTX_Config.h"
  54:../Dave/Generated/src/RTOS001/SRC/rt_CMSIS.c **** #include "rt_System.h"
  55:../Dave/Generated/src/RTOS001/SRC/rt_CMSIS.c **** #include "rt_Task.h"
  56:../Dave/Generated/src/RTOS001/SRC/rt_CMSIS.c **** #include "rt_Event.h"
  57:../Dave/Generated/src/RTOS001/SRC/rt_CMSIS.c **** #include "rt_List.h"
  58:../Dave/Generated/src/RTOS001/SRC/rt_CMSIS.c **** #include "rt_Time.h"
  59:../Dave/Generated/src/RTOS001/SRC/rt_CMSIS.c **** #include "rt_Mutex.h"
  60:../Dave/Generated/src/RTOS001/SRC/rt_CMSIS.c **** #include "rt_Semaphore.h"
  61:../Dave/Generated/src/RTOS001/SRC/rt_CMSIS.c **** #include "rt_Mailbox.h"
  62:../Dave/Generated/src/RTOS001/SRC/rt_CMSIS.c **** #include "rt_MemBox.h"
  63:../Dave/Generated/src/RTOS001/SRC/rt_CMSIS.c **** #include "rt_Memory.h"
  64:../Dave/Generated/src/RTOS001/SRC/rt_CMSIS.c **** #include "rt_HAL_CM.h"
  65:../Dave/Generated/src/RTOS001/SRC/rt_CMSIS.c **** 
  66:../Dave/Generated/src/RTOS001/SRC/rt_CMSIS.c **** #define os_thread_cb OS_TCB
  67:../Dave/Generated/src/RTOS001/SRC/rt_CMSIS.c **** 
  68:../Dave/Generated/src/RTOS001/SRC/rt_CMSIS.c **** #include "../INC/cmsis_os.h"
  69:../Dave/Generated/src/RTOS001/SRC/rt_CMSIS.c **** 
  70:../Dave/Generated/src/RTOS001/SRC/rt_CMSIS.c **** #if (osFeature_Signals != 16)
  71:../Dave/Generated/src/RTOS001/SRC/rt_CMSIS.c **** #error Invalid "osFeature_Signals" value!
  72:../Dave/Generated/src/RTOS001/SRC/rt_CMSIS.c **** #endif
  73:../Dave/Generated/src/RTOS001/SRC/rt_CMSIS.c **** #if (osFeature_Semaphore > 65535)
  74:../Dave/Generated/src/RTOS001/SRC/rt_CMSIS.c **** #error Invalid "osFeature_Semaphore" value!
  75:../Dave/Generated/src/RTOS001/SRC/rt_CMSIS.c **** #endif
  76:../Dave/Generated/src/RTOS001/SRC/rt_CMSIS.c **** #if (osFeature_Wait != 0)
  77:../Dave/Generated/src/RTOS001/SRC/rt_CMSIS.c **** #error osWait not supported!
  78:../Dave/Generated/src/RTOS001/SRC/rt_CMSIS.c **** #endif
  79:../Dave/Generated/src/RTOS001/SRC/rt_CMSIS.c **** 
  80:../Dave/Generated/src/RTOS001/SRC/rt_CMSIS.c **** 
  81:../Dave/Generated/src/RTOS001/SRC/rt_CMSIS.c **** // ==== Enumeration, structures, defines ====
  82:../Dave/Generated/src/RTOS001/SRC/rt_CMSIS.c **** 
  83:../Dave/Generated/src/RTOS001/SRC/rt_CMSIS.c **** // Service Calls defines
  84:../Dave/Generated/src/RTOS001/SRC/rt_CMSIS.c **** 
  85:../Dave/Generated/src/RTOS001/SRC/rt_CMSIS.c **** #if defined (__CC_ARM)          /* ARM Compiler */
  86:../Dave/Generated/src/RTOS001/SRC/rt_CMSIS.c **** 
  87:../Dave/Generated/src/RTOS001/SRC/rt_CMSIS.c **** #define __NO_RETURN __declspec(noreturn)
  88:../Dave/Generated/src/RTOS001/SRC/rt_CMSIS.c **** 
  89:../Dave/Generated/src/RTOS001/SRC/rt_CMSIS.c **** #define osEvent_type       osEvent
  90:../Dave/Generated/src/RTOS001/SRC/rt_CMSIS.c **** #define osEvent_ret_status ret
  91:../Dave/Generated/src/RTOS001/SRC/rt_CMSIS.c **** #define osEvent_ret_value  ret
  92:../Dave/Generated/src/RTOS001/SRC/rt_CMSIS.c **** #define osEvent_ret_msg    ret
  93:../Dave/Generated/src/RTOS001/SRC/rt_CMSIS.c **** #define osEvent_ret_mail   ret
  94:../Dave/Generated/src/RTOS001/SRC/rt_CMSIS.c **** 
  95:../Dave/Generated/src/RTOS001/SRC/rt_CMSIS.c **** #define osCallback_type    osCallback
  96:../Dave/Generated/src/RTOS001/SRC/rt_CMSIS.c **** #define osCallback_ret     ret
  97:../Dave/Generated/src/RTOS001/SRC/rt_CMSIS.c **** 
  98:../Dave/Generated/src/RTOS001/SRC/rt_CMSIS.c **** #define SVC_0_1(f,t,...)                                                       \
  99:../Dave/Generated/src/RTOS001/SRC/rt_CMSIS.c **** __svc_indirect(0) t  _##f (t(*)());                                            \
 100:../Dave/Generated/src/RTOS001/SRC/rt_CMSIS.c ****                   t     f (void);                                              \
 101:../Dave/Generated/src/RTOS001/SRC/rt_CMSIS.c **** __attribute__((always_inline))                                                 \
 102:../Dave/Generated/src/RTOS001/SRC/rt_CMSIS.c **** static __inline   t __##f (void) {                                             \
 103:../Dave/Generated/src/RTOS001/SRC/rt_CMSIS.c ****   return _##f(f);                                                              \
 104:../Dave/Generated/src/RTOS001/SRC/rt_CMSIS.c **** }
 105:../Dave/Generated/src/RTOS001/SRC/rt_CMSIS.c **** 
 106:../Dave/Generated/src/RTOS001/SRC/rt_CMSIS.c **** #define SVC_1_0(f,t,t1,...)                                                    \
 107:../Dave/Generated/src/RTOS001/SRC/rt_CMSIS.c **** __svc_indirect(0) t  _##f (t(*)(t1),t1);                                       \
 108:../Dave/Generated/src/RTOS001/SRC/rt_CMSIS.c ****                   t     f (t1 a1);                                             \
 109:../Dave/Generated/src/RTOS001/SRC/rt_CMSIS.c **** __attribute__((always_inline))                                                 \
 110:../Dave/Generated/src/RTOS001/SRC/rt_CMSIS.c **** static __inline   t __##f (t1 a1) {                                            \
 111:../Dave/Generated/src/RTOS001/SRC/rt_CMSIS.c ****   _##f(f,a1);                                                                  \
 112:../Dave/Generated/src/RTOS001/SRC/rt_CMSIS.c **** }
 113:../Dave/Generated/src/RTOS001/SRC/rt_CMSIS.c **** 
 114:../Dave/Generated/src/RTOS001/SRC/rt_CMSIS.c **** #define SVC_1_1(f,t,t1,...)                                                    \
 115:../Dave/Generated/src/RTOS001/SRC/rt_CMSIS.c **** __svc_indirect(0) t  _##f (t(*)(t1),t1);                                       \
 116:../Dave/Generated/src/RTOS001/SRC/rt_CMSIS.c ****                   t     f (t1 a1);                                             \
 117:../Dave/Generated/src/RTOS001/SRC/rt_CMSIS.c **** __attribute__((always_inline))                                                 \
 118:../Dave/Generated/src/RTOS001/SRC/rt_CMSIS.c **** static __inline   t __##f (t1 a1) {                                            \
 119:../Dave/Generated/src/RTOS001/SRC/rt_CMSIS.c ****   return _##f(f,a1);                                                           \
 120:../Dave/Generated/src/RTOS001/SRC/rt_CMSIS.c **** }
 121:../Dave/Generated/src/RTOS001/SRC/rt_CMSIS.c **** 
 122:../Dave/Generated/src/RTOS001/SRC/rt_CMSIS.c **** #define SVC_2_1(f,t,t1,t2,...)                                                 \
 123:../Dave/Generated/src/RTOS001/SRC/rt_CMSIS.c **** __svc_indirect(0) t  _##f (t(*)(t1,t2),t1,t2);                                 \
 124:../Dave/Generated/src/RTOS001/SRC/rt_CMSIS.c ****                   t     f (t1 a1, t2 a2);                                      \
 125:../Dave/Generated/src/RTOS001/SRC/rt_CMSIS.c **** __attribute__((always_inline))                                                 \
 126:../Dave/Generated/src/RTOS001/SRC/rt_CMSIS.c **** static __inline   t __##f (t1 a1, t2 a2) {                                     \
 127:../Dave/Generated/src/RTOS001/SRC/rt_CMSIS.c ****   return _##f(f,a1,a2);                                                        \
 128:../Dave/Generated/src/RTOS001/SRC/rt_CMSIS.c **** }
 129:../Dave/Generated/src/RTOS001/SRC/rt_CMSIS.c **** 
 130:../Dave/Generated/src/RTOS001/SRC/rt_CMSIS.c **** #define SVC_3_1(f,t,t1,t2,t3,...)                                              \
 131:../Dave/Generated/src/RTOS001/SRC/rt_CMSIS.c **** __svc_indirect(0) t  _##f (t(*)(t1,t2,t3),t1,t2,t3);                           \
 132:../Dave/Generated/src/RTOS001/SRC/rt_CMSIS.c ****                   t     f (t1 a1, t2 a2, t3 a3);                               \
 133:../Dave/Generated/src/RTOS001/SRC/rt_CMSIS.c **** __attribute__((always_inline))                                                 \
 134:../Dave/Generated/src/RTOS001/SRC/rt_CMSIS.c **** static __inline   t __##f (t1 a1, t2 a2, t3 a3) {                              \
 135:../Dave/Generated/src/RTOS001/SRC/rt_CMSIS.c ****   return _##f(f,a1,a2,a3);                                                     \
 136:../Dave/Generated/src/RTOS001/SRC/rt_CMSIS.c **** }
 137:../Dave/Generated/src/RTOS001/SRC/rt_CMSIS.c **** 
 138:../Dave/Generated/src/RTOS001/SRC/rt_CMSIS.c **** #define SVC_4_1(f,t,t1,t2,t3,t4,...)                                           \
 139:../Dave/Generated/src/RTOS001/SRC/rt_CMSIS.c **** __svc_indirect(0) t  _##f (t(*)(t1,t2,t3,t4),t1,t2,t3,t4);                     \
 140:../Dave/Generated/src/RTOS001/SRC/rt_CMSIS.c ****                   t     f (t1 a1, t2 a2, t3 a3, t4 a4);                        \
 141:../Dave/Generated/src/RTOS001/SRC/rt_CMSIS.c **** __attribute__((always_inline))                                                 \
 142:../Dave/Generated/src/RTOS001/SRC/rt_CMSIS.c **** static __inline   t __##f (t1 a1, t2 a2, t3 a3, t4 a4) {                       \
 143:../Dave/Generated/src/RTOS001/SRC/rt_CMSIS.c ****   return _##f(f,a1,a2,a3,a4);                                                  \
 144:../Dave/Generated/src/RTOS001/SRC/rt_CMSIS.c **** }
 145:../Dave/Generated/src/RTOS001/SRC/rt_CMSIS.c **** 
 146:../Dave/Generated/src/RTOS001/SRC/rt_CMSIS.c **** #define SVC_1_2 SVC_1_1 
 147:../Dave/Generated/src/RTOS001/SRC/rt_CMSIS.c **** #define SVC_1_3 SVC_1_1 
 148:../Dave/Generated/src/RTOS001/SRC/rt_CMSIS.c **** #define SVC_2_3 SVC_2_1 
 149:../Dave/Generated/src/RTOS001/SRC/rt_CMSIS.c **** 
 150:../Dave/Generated/src/RTOS001/SRC/rt_CMSIS.c **** #elif defined (__GNUC__)        /* GNU Compiler */
 151:../Dave/Generated/src/RTOS001/SRC/rt_CMSIS.c **** 
 152:../Dave/Generated/src/RTOS001/SRC/rt_CMSIS.c **** #define __NO_RETURN __attribute__((noreturn))
 153:../Dave/Generated/src/RTOS001/SRC/rt_CMSIS.c **** 
 154:../Dave/Generated/src/RTOS001/SRC/rt_CMSIS.c **** typedef uint32_t __attribute__((vector_size(8)))  ret64;
 155:../Dave/Generated/src/RTOS001/SRC/rt_CMSIS.c **** typedef uint32_t __attribute__((vector_size(16))) ret128;
 156:../Dave/Generated/src/RTOS001/SRC/rt_CMSIS.c **** 
 157:../Dave/Generated/src/RTOS001/SRC/rt_CMSIS.c **** #define RET_pointer    __r0
 158:../Dave/Generated/src/RTOS001/SRC/rt_CMSIS.c **** #define RET_int32_t    __r0
 159:../Dave/Generated/src/RTOS001/SRC/rt_CMSIS.c **** #define RET_uint32_t   __r0
 160:../Dave/Generated/src/RTOS001/SRC/rt_CMSIS.c **** #define RET_osStatus   __r0
 161:../Dave/Generated/src/RTOS001/SRC/rt_CMSIS.c **** #define RET_osPriority __r0
 162:../Dave/Generated/src/RTOS001/SRC/rt_CMSIS.c **** #define RET_osEvent    {(osStatus)__r0, {(uint32_t)__r1}, {(void *)__r2}}
 163:../Dave/Generated/src/RTOS001/SRC/rt_CMSIS.c **** #define RET_osCallback {(void *)__r0, (void *)__r1}
 164:../Dave/Generated/src/RTOS001/SRC/rt_CMSIS.c **** 
 165:../Dave/Generated/src/RTOS001/SRC/rt_CMSIS.c **** #define osEvent_type        ret128
 166:../Dave/Generated/src/RTOS001/SRC/rt_CMSIS.c **** #define osEvent_ret_status (ret128){ret.status}
 167:../Dave/Generated/src/RTOS001/SRC/rt_CMSIS.c **** #define osEvent_ret_value  (ret128){ret.status, ret.value.v}
 168:../Dave/Generated/src/RTOS001/SRC/rt_CMSIS.c **** #define osEvent_ret_msg    (ret128){ret.status, ret.value.v, (uint32_t)ret.def.message_id}
 169:../Dave/Generated/src/RTOS001/SRC/rt_CMSIS.c **** #define osEvent_ret_mail   (ret128){ret.status, ret.value.v, (uint32_t)ret.def.mail_id}
 170:../Dave/Generated/src/RTOS001/SRC/rt_CMSIS.c **** 
 171:../Dave/Generated/src/RTOS001/SRC/rt_CMSIS.c **** #define osCallback_type     ret64
 172:../Dave/Generated/src/RTOS001/SRC/rt_CMSIS.c **** #define osCallback_ret     (ret64) {(uint32_t)ret.fp, (uint32_t)ret.arg}
 173:../Dave/Generated/src/RTOS001/SRC/rt_CMSIS.c **** 
 174:../Dave/Generated/src/RTOS001/SRC/rt_CMSIS.c **** #define SVC_ArgN(n) \
 175:../Dave/Generated/src/RTOS001/SRC/rt_CMSIS.c ****   register int __r##n __asm("r"#n);
 176:../Dave/Generated/src/RTOS001/SRC/rt_CMSIS.c **** 
 177:../Dave/Generated/src/RTOS001/SRC/rt_CMSIS.c **** #define SVC_ArgR(n,t,a) \
 178:../Dave/Generated/src/RTOS001/SRC/rt_CMSIS.c ****   register t   __r##n __asm("r"#n) = a;
 179:../Dave/Generated/src/RTOS001/SRC/rt_CMSIS.c **** 
 180:../Dave/Generated/src/RTOS001/SRC/rt_CMSIS.c **** #define SVC_Arg0()                                                             \
 181:../Dave/Generated/src/RTOS001/SRC/rt_CMSIS.c ****   SVC_ArgN(0)                                                                  \
 182:../Dave/Generated/src/RTOS001/SRC/rt_CMSIS.c ****   SVC_ArgN(1)                                                                  \
 183:../Dave/Generated/src/RTOS001/SRC/rt_CMSIS.c ****   SVC_ArgN(2)                                                                  \
 184:../Dave/Generated/src/RTOS001/SRC/rt_CMSIS.c ****   SVC_ArgN(3)
 185:../Dave/Generated/src/RTOS001/SRC/rt_CMSIS.c **** 
 186:../Dave/Generated/src/RTOS001/SRC/rt_CMSIS.c **** #define SVC_Arg1(t1)                                                           \
 187:../Dave/Generated/src/RTOS001/SRC/rt_CMSIS.c ****   SVC_ArgR(0,t1,a1)                                                            \
 188:../Dave/Generated/src/RTOS001/SRC/rt_CMSIS.c ****   SVC_ArgN(1)                                                                  \
 189:../Dave/Generated/src/RTOS001/SRC/rt_CMSIS.c ****   SVC_ArgN(2)                                                                  \
 190:../Dave/Generated/src/RTOS001/SRC/rt_CMSIS.c ****   SVC_ArgN(3)
 191:../Dave/Generated/src/RTOS001/SRC/rt_CMSIS.c **** 
 192:../Dave/Generated/src/RTOS001/SRC/rt_CMSIS.c **** #define SVC_Arg2(t1,t2)                                                        \
 193:../Dave/Generated/src/RTOS001/SRC/rt_CMSIS.c ****   SVC_ArgR(0,t1,a1)                                                            \
 194:../Dave/Generated/src/RTOS001/SRC/rt_CMSIS.c ****   SVC_ArgR(1,t2,a2)                                                            \
 195:../Dave/Generated/src/RTOS001/SRC/rt_CMSIS.c ****   SVC_ArgN(2)                                                                  \
 196:../Dave/Generated/src/RTOS001/SRC/rt_CMSIS.c ****   SVC_ArgN(3)
 197:../Dave/Generated/src/RTOS001/SRC/rt_CMSIS.c **** 
 198:../Dave/Generated/src/RTOS001/SRC/rt_CMSIS.c **** #define SVC_Arg3(t1,t2,t3)                                                     \
 199:../Dave/Generated/src/RTOS001/SRC/rt_CMSIS.c ****   SVC_ArgR(0,t1,a1)                                                            \
 200:../Dave/Generated/src/RTOS001/SRC/rt_CMSIS.c ****   SVC_ArgR(1,t2,a2)                                                            \
 201:../Dave/Generated/src/RTOS001/SRC/rt_CMSIS.c ****   SVC_ArgR(2,t3,a3)                                                            \
 202:../Dave/Generated/src/RTOS001/SRC/rt_CMSIS.c ****   SVC_ArgN(3)
 203:../Dave/Generated/src/RTOS001/SRC/rt_CMSIS.c **** 
 204:../Dave/Generated/src/RTOS001/SRC/rt_CMSIS.c **** #define SVC_Arg4(t1,t2,t3,t4)                                                  \
 205:../Dave/Generated/src/RTOS001/SRC/rt_CMSIS.c ****   SVC_ArgR(0,t1,a1)                                                            \
 206:../Dave/Generated/src/RTOS001/SRC/rt_CMSIS.c ****   SVC_ArgR(1,t2,a2)                                                            \
 207:../Dave/Generated/src/RTOS001/SRC/rt_CMSIS.c ****   SVC_ArgR(2,t3,a3)                                                            \
 208:../Dave/Generated/src/RTOS001/SRC/rt_CMSIS.c ****   SVC_ArgR(3,t4,a4)
 209:../Dave/Generated/src/RTOS001/SRC/rt_CMSIS.c **** 
 210:../Dave/Generated/src/RTOS001/SRC/rt_CMSIS.c **** #if (defined (__CORTEX_M0))
 211:../Dave/Generated/src/RTOS001/SRC/rt_CMSIS.c **** #define SVC_Call(f)                                                            \
 212:../Dave/Generated/src/RTOS001/SRC/rt_CMSIS.c ****   __asm volatile                                                               \
 213:../Dave/Generated/src/RTOS001/SRC/rt_CMSIS.c ****   (                                                                            \
 214:../Dave/Generated/src/RTOS001/SRC/rt_CMSIS.c ****     "ldr r7,="#f"\n\t"                                                         \
 215:../Dave/Generated/src/RTOS001/SRC/rt_CMSIS.c ****     "mov r12,r7\n\t"                                                           \
 216:../Dave/Generated/src/RTOS001/SRC/rt_CMSIS.c ****     "svc 0"                                                                    \
 217:../Dave/Generated/src/RTOS001/SRC/rt_CMSIS.c ****     :               "=r" (__r0), "=r" (__r1), "=r" (__r2), "=r" (__r3)         \
 218:../Dave/Generated/src/RTOS001/SRC/rt_CMSIS.c ****     :                "r" (__r0),  "r" (__r1),  "r" (__r2),  "r" (__r3)         \
 219:../Dave/Generated/src/RTOS001/SRC/rt_CMSIS.c ****     : "r7", "r12", "lr", "cc"                                                  \
 220:../Dave/Generated/src/RTOS001/SRC/rt_CMSIS.c ****   );
 221:../Dave/Generated/src/RTOS001/SRC/rt_CMSIS.c **** #else
 222:../Dave/Generated/src/RTOS001/SRC/rt_CMSIS.c **** #define SVC_Call(f)                                                            \
 223:../Dave/Generated/src/RTOS001/SRC/rt_CMSIS.c ****   __asm volatile                                                               \
 224:../Dave/Generated/src/RTOS001/SRC/rt_CMSIS.c ****   (                                                                            \
 225:../Dave/Generated/src/RTOS001/SRC/rt_CMSIS.c ****     "ldr r12,="#f"\n\t"                                                        \
 226:../Dave/Generated/src/RTOS001/SRC/rt_CMSIS.c ****     "svc 0"                                                                    \
 227:../Dave/Generated/src/RTOS001/SRC/rt_CMSIS.c ****     :               "=r" (__r0), "=r" (__r1), "=r" (__r2), "=r" (__r3)         \
 228:../Dave/Generated/src/RTOS001/SRC/rt_CMSIS.c ****     :                "r" (__r0),  "r" (__r1),  "r" (__r2),  "r" (__r3)         \
 229:../Dave/Generated/src/RTOS001/SRC/rt_CMSIS.c ****     : "r12", "lr", "cc"                                                        \
 230:../Dave/Generated/src/RTOS001/SRC/rt_CMSIS.c ****   );
 231:../Dave/Generated/src/RTOS001/SRC/rt_CMSIS.c **** #endif
 232:../Dave/Generated/src/RTOS001/SRC/rt_CMSIS.c **** 
 233:../Dave/Generated/src/RTOS001/SRC/rt_CMSIS.c **** #define SVC_0_1(f,t,rv)                                                        \
 234:../Dave/Generated/src/RTOS001/SRC/rt_CMSIS.c **** __attribute__((always_inline))                                                 \
 235:../Dave/Generated/src/RTOS001/SRC/rt_CMSIS.c **** static inline  t __##f (void) {                                                \
 236:../Dave/Generated/src/RTOS001/SRC/rt_CMSIS.c ****   SVC_Arg0();                                                                  \
 237:../Dave/Generated/src/RTOS001/SRC/rt_CMSIS.c ****   SVC_Call(f);                                                                 \
 238:../Dave/Generated/src/RTOS001/SRC/rt_CMSIS.c ****   return (t) rv;                                                               \
 239:../Dave/Generated/src/RTOS001/SRC/rt_CMSIS.c **** }
 240:../Dave/Generated/src/RTOS001/SRC/rt_CMSIS.c **** 
 241:../Dave/Generated/src/RTOS001/SRC/rt_CMSIS.c **** #define SVC_1_0(f,t,t1)                                                        \
 242:../Dave/Generated/src/RTOS001/SRC/rt_CMSIS.c **** __attribute__((always_inline))                                                 \
 243:../Dave/Generated/src/RTOS001/SRC/rt_CMSIS.c **** static inline  t __##f (t1 a1) {                                               \
 244:../Dave/Generated/src/RTOS001/SRC/rt_CMSIS.c ****   SVC_Arg1(t1);                                                                \
 245:../Dave/Generated/src/RTOS001/SRC/rt_CMSIS.c ****   SVC_Call(f);                                                                 \
 246:../Dave/Generated/src/RTOS001/SRC/rt_CMSIS.c **** }
 247:../Dave/Generated/src/RTOS001/SRC/rt_CMSIS.c **** 
 248:../Dave/Generated/src/RTOS001/SRC/rt_CMSIS.c **** #define SVC_1_1(f,t,t1,rv)                                                     \
 249:../Dave/Generated/src/RTOS001/SRC/rt_CMSIS.c **** __attribute__((always_inline))                                                 \
 250:../Dave/Generated/src/RTOS001/SRC/rt_CMSIS.c **** static inline  t __##f (t1 a1) {                                               \
 251:../Dave/Generated/src/RTOS001/SRC/rt_CMSIS.c ****   SVC_Arg1(t1);                                                                \
 252:../Dave/Generated/src/RTOS001/SRC/rt_CMSIS.c ****   SVC_Call(f);                                                                 \
 253:../Dave/Generated/src/RTOS001/SRC/rt_CMSIS.c ****   return (t) rv;                                                               \
 254:../Dave/Generated/src/RTOS001/SRC/rt_CMSIS.c **** }
 255:../Dave/Generated/src/RTOS001/SRC/rt_CMSIS.c **** 
 256:../Dave/Generated/src/RTOS001/SRC/rt_CMSIS.c **** #define SVC_2_1(f,t,t1,t2,rv)                                                  \
 257:../Dave/Generated/src/RTOS001/SRC/rt_CMSIS.c **** __attribute__((always_inline))                                                 \
 258:../Dave/Generated/src/RTOS001/SRC/rt_CMSIS.c **** static inline  t __##f (t1 a1, t2 a2) {                                        \
 259:../Dave/Generated/src/RTOS001/SRC/rt_CMSIS.c ****   SVC_Arg2(t1,t2);                                                             \
 260:../Dave/Generated/src/RTOS001/SRC/rt_CMSIS.c ****   SVC_Call(f);                                                                 \
 261:../Dave/Generated/src/RTOS001/SRC/rt_CMSIS.c ****   return (t) rv;                                                               \
 262:../Dave/Generated/src/RTOS001/SRC/rt_CMSIS.c **** }
 263:../Dave/Generated/src/RTOS001/SRC/rt_CMSIS.c **** 
 264:../Dave/Generated/src/RTOS001/SRC/rt_CMSIS.c **** #define SVC_3_1(f,t,t1,t2,t3,rv)                                               \
 265:../Dave/Generated/src/RTOS001/SRC/rt_CMSIS.c **** __attribute__((always_inline))                                                 \
 266:../Dave/Generated/src/RTOS001/SRC/rt_CMSIS.c **** static inline  t __##f (t1 a1, t2 a2, t3 a3) {                                 \
 267:../Dave/Generated/src/RTOS001/SRC/rt_CMSIS.c ****   SVC_Arg3(t1,t2,t3);                                                          \
 268:../Dave/Generated/src/RTOS001/SRC/rt_CMSIS.c ****   SVC_Call(f);                                                                 \
 269:../Dave/Generated/src/RTOS001/SRC/rt_CMSIS.c ****   return (t) rv;                                                               \
 270:../Dave/Generated/src/RTOS001/SRC/rt_CMSIS.c **** }
 271:../Dave/Generated/src/RTOS001/SRC/rt_CMSIS.c **** 
 272:../Dave/Generated/src/RTOS001/SRC/rt_CMSIS.c **** #define SVC_4_1(f,t,t1,t2,t3,t4,rv)                                            \
 273:../Dave/Generated/src/RTOS001/SRC/rt_CMSIS.c **** __attribute__((always_inline))                                                 \
 274:../Dave/Generated/src/RTOS001/SRC/rt_CMSIS.c **** static inline  t __##f (t1 a1, t2 a2, t3 a3, t4 a4) {                          \
 275:../Dave/Generated/src/RTOS001/SRC/rt_CMSIS.c ****   SVC_Arg4(t1,t2,t3,t4);                                                       \
 276:../Dave/Generated/src/RTOS001/SRC/rt_CMSIS.c ****   SVC_Call(f);                                                                 \
 277:../Dave/Generated/src/RTOS001/SRC/rt_CMSIS.c ****   return (t) rv;                                                               \
 278:../Dave/Generated/src/RTOS001/SRC/rt_CMSIS.c **** }
 279:../Dave/Generated/src/RTOS001/SRC/rt_CMSIS.c **** 
 280:../Dave/Generated/src/RTOS001/SRC/rt_CMSIS.c **** #define SVC_1_2 SVC_1_1 
 281:../Dave/Generated/src/RTOS001/SRC/rt_CMSIS.c **** #define SVC_1_3 SVC_1_1 
 282:../Dave/Generated/src/RTOS001/SRC/rt_CMSIS.c **** #define SVC_2_3 SVC_2_1 
 283:../Dave/Generated/src/RTOS001/SRC/rt_CMSIS.c **** 
 284:../Dave/Generated/src/RTOS001/SRC/rt_CMSIS.c **** #elif defined (__ICCARM__)      /* IAR Compiler */
 285:../Dave/Generated/src/RTOS001/SRC/rt_CMSIS.c **** 
 286:../Dave/Generated/src/RTOS001/SRC/rt_CMSIS.c **** #define __NO_RETURN __noreturn
 287:../Dave/Generated/src/RTOS001/SRC/rt_CMSIS.c **** 
 288:../Dave/Generated/src/RTOS001/SRC/rt_CMSIS.c **** #define RET_osEvent        "=r"(ret.status), "=r"(ret.value), "=r"(ret.def)
 289:../Dave/Generated/src/RTOS001/SRC/rt_CMSIS.c **** #define RET_osCallback     "=r"(ret.fp), "=r"(ret.arg)
 290:../Dave/Generated/src/RTOS001/SRC/rt_CMSIS.c **** 
 291:../Dave/Generated/src/RTOS001/SRC/rt_CMSIS.c **** #define osEvent_type       osEvent
 292:../Dave/Generated/src/RTOS001/SRC/rt_CMSIS.c **** #define osEvent_ret_status ret
 293:../Dave/Generated/src/RTOS001/SRC/rt_CMSIS.c **** #define osEvent_ret_value  ret
 294:../Dave/Generated/src/RTOS001/SRC/rt_CMSIS.c **** #define osEvent_ret_msg    ret
 295:../Dave/Generated/src/RTOS001/SRC/rt_CMSIS.c **** #define osEvent_ret_mail   ret
 296:../Dave/Generated/src/RTOS001/SRC/rt_CMSIS.c **** 
 297:../Dave/Generated/src/RTOS001/SRC/rt_CMSIS.c **** #define osCallback_type    uint64_t
 298:../Dave/Generated/src/RTOS001/SRC/rt_CMSIS.c **** #define osCallback_ret     ((uint64_t)ret.fp | ((uint64_t)ret.arg)<<32)
 299:../Dave/Generated/src/RTOS001/SRC/rt_CMSIS.c **** 
 300:../Dave/Generated/src/RTOS001/SRC/rt_CMSIS.c **** #define SVC_Setup(f)                                                           \
 301:../Dave/Generated/src/RTOS001/SRC/rt_CMSIS.c ****   __asm(                                                                       \
 302:../Dave/Generated/src/RTOS001/SRC/rt_CMSIS.c ****     "mov r12,%0\n"                                                             \
 303:../Dave/Generated/src/RTOS001/SRC/rt_CMSIS.c ****     :: "r"(&f): "r12"                                                          \
 304:../Dave/Generated/src/RTOS001/SRC/rt_CMSIS.c ****   );
 305:../Dave/Generated/src/RTOS001/SRC/rt_CMSIS.c **** 
 306:../Dave/Generated/src/RTOS001/SRC/rt_CMSIS.c **** #define SVC_Ret3()                                                             \
 307:../Dave/Generated/src/RTOS001/SRC/rt_CMSIS.c ****   __asm(                                                                       \
 308:../Dave/Generated/src/RTOS001/SRC/rt_CMSIS.c ****     "ldr r0,[sp,#0]\n"                                                         \
 309:../Dave/Generated/src/RTOS001/SRC/rt_CMSIS.c ****     "ldr r1,[sp,#4]\n"                                                         \
 310:../Dave/Generated/src/RTOS001/SRC/rt_CMSIS.c ****     "ldr r2,[sp,#8]\n"                                                         \
 311:../Dave/Generated/src/RTOS001/SRC/rt_CMSIS.c ****   );
 312:../Dave/Generated/src/RTOS001/SRC/rt_CMSIS.c **** 
 313:../Dave/Generated/src/RTOS001/SRC/rt_CMSIS.c **** #define SVC_0_1(f,t,...)                                                       \
 314:../Dave/Generated/src/RTOS001/SRC/rt_CMSIS.c **** t f (void);                                                                    \
 315:../Dave/Generated/src/RTOS001/SRC/rt_CMSIS.c **** _Pragma("swi_number=0") __swi t _##f (void);                                   \
 316:../Dave/Generated/src/RTOS001/SRC/rt_CMSIS.c **** static inline t __##f (void) {                                                 \
 317:../Dave/Generated/src/RTOS001/SRC/rt_CMSIS.c ****   SVC_Setup(f);                                                                \
 318:../Dave/Generated/src/RTOS001/SRC/rt_CMSIS.c ****   return _##f();                                                               \
 319:../Dave/Generated/src/RTOS001/SRC/rt_CMSIS.c **** }
 320:../Dave/Generated/src/RTOS001/SRC/rt_CMSIS.c **** 
 321:../Dave/Generated/src/RTOS001/SRC/rt_CMSIS.c **** #define SVC_1_0(f,t,t1,...)                                                    \
 322:../Dave/Generated/src/RTOS001/SRC/rt_CMSIS.c **** t f (t1 a1);                                                                   \
 323:../Dave/Generated/src/RTOS001/SRC/rt_CMSIS.c **** _Pragma("swi_number=0") __swi t _##f (t1 a1);                                  \
 324:../Dave/Generated/src/RTOS001/SRC/rt_CMSIS.c **** static inline t __##f (t1 a1) {                                                \
 325:../Dave/Generated/src/RTOS001/SRC/rt_CMSIS.c ****   SVC_Setup(f);                                                                \
 326:../Dave/Generated/src/RTOS001/SRC/rt_CMSIS.c ****   _##f(a1);                                                                    \
 327:../Dave/Generated/src/RTOS001/SRC/rt_CMSIS.c **** }
 328:../Dave/Generated/src/RTOS001/SRC/rt_CMSIS.c **** 
 329:../Dave/Generated/src/RTOS001/SRC/rt_CMSIS.c **** #define SVC_1_1(f,t,t1,...)                                                    \
 330:../Dave/Generated/src/RTOS001/SRC/rt_CMSIS.c **** t f (t1 a1);                                                                   \
 331:../Dave/Generated/src/RTOS001/SRC/rt_CMSIS.c **** _Pragma("swi_number=0") __swi t _##f (t1 a1);                                  \
 332:../Dave/Generated/src/RTOS001/SRC/rt_CMSIS.c **** static inline t __##f (t1 a1) {                                                \
 333:../Dave/Generated/src/RTOS001/SRC/rt_CMSIS.c ****   SVC_Setup(f);                                                                \
 334:../Dave/Generated/src/RTOS001/SRC/rt_CMSIS.c ****   return _##f(a1);                                                             \
 335:../Dave/Generated/src/RTOS001/SRC/rt_CMSIS.c **** }
 336:../Dave/Generated/src/RTOS001/SRC/rt_CMSIS.c **** 
 337:../Dave/Generated/src/RTOS001/SRC/rt_CMSIS.c **** #define SVC_2_1(f,t,t1,t2,...)                                                 \
 338:../Dave/Generated/src/RTOS001/SRC/rt_CMSIS.c **** t f (t1 a1, t2 a2);                                                            \
 339:../Dave/Generated/src/RTOS001/SRC/rt_CMSIS.c **** _Pragma("swi_number=0") __swi t _##f (t1 a1, t2 a2);                           \
 340:../Dave/Generated/src/RTOS001/SRC/rt_CMSIS.c **** static inline t __##f (t1 a1, t2 a2) {                                         \
 341:../Dave/Generated/src/RTOS001/SRC/rt_CMSIS.c ****   SVC_Setup(f);                                                                \
 342:../Dave/Generated/src/RTOS001/SRC/rt_CMSIS.c ****   return _##f(a1,a2);                                                          \
 343:../Dave/Generated/src/RTOS001/SRC/rt_CMSIS.c **** }
 344:../Dave/Generated/src/RTOS001/SRC/rt_CMSIS.c **** 
 345:../Dave/Generated/src/RTOS001/SRC/rt_CMSIS.c **** #define SVC_3_1(f,t,t1,t2,t3,...)                                              \
 346:../Dave/Generated/src/RTOS001/SRC/rt_CMSIS.c **** t f (t1 a1, t2 a2, t3 a3);                                                     \
 347:../Dave/Generated/src/RTOS001/SRC/rt_CMSIS.c **** _Pragma("swi_number=0") __swi t _##f (t1 a1, t2 a2, t3 a3);                    \
 348:../Dave/Generated/src/RTOS001/SRC/rt_CMSIS.c **** static inline t __##f (t1 a1, t2 a2, t3 a3) {                                  \
 349:../Dave/Generated/src/RTOS001/SRC/rt_CMSIS.c ****   SVC_Setup(f);                                                                \
 350:../Dave/Generated/src/RTOS001/SRC/rt_CMSIS.c ****   return _##f(a1,a2,a3);                                                       \
 351:../Dave/Generated/src/RTOS001/SRC/rt_CMSIS.c **** }
 352:../Dave/Generated/src/RTOS001/SRC/rt_CMSIS.c **** 
 353:../Dave/Generated/src/RTOS001/SRC/rt_CMSIS.c **** #define SVC_4_1(f,t,t1,t2,t3,t4,...)                                           \
 354:../Dave/Generated/src/RTOS001/SRC/rt_CMSIS.c **** t f (t1 a1, t2 a2, t3 a3, t4 a4);                                              \
 355:../Dave/Generated/src/RTOS001/SRC/rt_CMSIS.c **** _Pragma("swi_number=0") __swi t _##f (t1 a1, t2 a2, t3 a3, t4 a4);             \
 356:../Dave/Generated/src/RTOS001/SRC/rt_CMSIS.c **** static inline t __##f (t1 a1, t2 a2, t3 a3, t4 a4) {                           \
 357:../Dave/Generated/src/RTOS001/SRC/rt_CMSIS.c ****   SVC_Setup(f);                                                                \
 358:../Dave/Generated/src/RTOS001/SRC/rt_CMSIS.c ****   return _##f(a1,a2,a3,a4);                                                    \
 359:../Dave/Generated/src/RTOS001/SRC/rt_CMSIS.c **** }
 360:../Dave/Generated/src/RTOS001/SRC/rt_CMSIS.c **** 
 361:../Dave/Generated/src/RTOS001/SRC/rt_CMSIS.c **** #define SVC_1_2(f,t,t1,rr)                                                     \
 362:../Dave/Generated/src/RTOS001/SRC/rt_CMSIS.c **** uint64_t f (t1 a1);                                                            \
 363:../Dave/Generated/src/RTOS001/SRC/rt_CMSIS.c **** _Pragma("swi_number=0") __swi uint64_t _##f (t1 a1);                           \
 364:../Dave/Generated/src/RTOS001/SRC/rt_CMSIS.c **** static inline t __##f (t1 a1) {                                                \
 365:../Dave/Generated/src/RTOS001/SRC/rt_CMSIS.c ****   t ret;                                                                       \
 366:../Dave/Generated/src/RTOS001/SRC/rt_CMSIS.c ****   SVC_Setup(f);                                                                \
 367:../Dave/Generated/src/RTOS001/SRC/rt_CMSIS.c ****   _##f(a1);                                                                    \
 368:../Dave/Generated/src/RTOS001/SRC/rt_CMSIS.c ****   __asm("" : rr : :);                                                          \
 369:../Dave/Generated/src/RTOS001/SRC/rt_CMSIS.c ****   return ret;                                                                  \
 370:../Dave/Generated/src/RTOS001/SRC/rt_CMSIS.c **** }
 371:../Dave/Generated/src/RTOS001/SRC/rt_CMSIS.c **** 
 372:../Dave/Generated/src/RTOS001/SRC/rt_CMSIS.c **** #define SVC_1_3(f,t,t1,rr)                                                     \
 373:../Dave/Generated/src/RTOS001/SRC/rt_CMSIS.c **** t f (t1 a1);                                                                   \
 374:../Dave/Generated/src/RTOS001/SRC/rt_CMSIS.c **** void f##_ (t1 a1) {                                                            \
 375:../Dave/Generated/src/RTOS001/SRC/rt_CMSIS.c ****   f(a1);                                                                       \
 376:../Dave/Generated/src/RTOS001/SRC/rt_CMSIS.c ****   SVC_Ret3();                                                                  \
 377:../Dave/Generated/src/RTOS001/SRC/rt_CMSIS.c **** }                                                                              \
 378:../Dave/Generated/src/RTOS001/SRC/rt_CMSIS.c **** _Pragma("swi_number=0") __swi void _##f (t1 a1);                               \
 379:../Dave/Generated/src/RTOS001/SRC/rt_CMSIS.c **** static inline t __##f (t1 a1) {                                                \
 380:../Dave/Generated/src/RTOS001/SRC/rt_CMSIS.c ****   t ret;                                                                       \
 381:../Dave/Generated/src/RTOS001/SRC/rt_CMSIS.c ****   SVC_Setup(f##_);                                                             \
 382:../Dave/Generated/src/RTOS001/SRC/rt_CMSIS.c ****   _##f(a1);                                                                    \
 383:../Dave/Generated/src/RTOS001/SRC/rt_CMSIS.c ****   __asm("" : rr : :);                                                          \
 384:../Dave/Generated/src/RTOS001/SRC/rt_CMSIS.c ****   return ret;                                                                  \
 385:../Dave/Generated/src/RTOS001/SRC/rt_CMSIS.c **** }
 386:../Dave/Generated/src/RTOS001/SRC/rt_CMSIS.c **** 
 387:../Dave/Generated/src/RTOS001/SRC/rt_CMSIS.c **** #define SVC_2_3(f,t,t1,t2,rr)                                                  \
 388:../Dave/Generated/src/RTOS001/SRC/rt_CMSIS.c **** t f (t1 a1, t2 a2);                                                            \
 389:../Dave/Generated/src/RTOS001/SRC/rt_CMSIS.c **** void f##_ (t1 a1, t2 a2) {                                                     \
 390:../Dave/Generated/src/RTOS001/SRC/rt_CMSIS.c ****   f(a1,a2);                                                                    \
 391:../Dave/Generated/src/RTOS001/SRC/rt_CMSIS.c ****   SVC_Ret3();                                                                  \
 392:../Dave/Generated/src/RTOS001/SRC/rt_CMSIS.c **** }                                                                              \
 393:../Dave/Generated/src/RTOS001/SRC/rt_CMSIS.c **** _Pragma("swi_number=0") __swi void _##f (t1 a1, t2 a2);                        \
 394:../Dave/Generated/src/RTOS001/SRC/rt_CMSIS.c **** static inline t __##f (t1 a1, t2 a2) {                                         \
 395:../Dave/Generated/src/RTOS001/SRC/rt_CMSIS.c ****   t ret;                                                                       \
 396:../Dave/Generated/src/RTOS001/SRC/rt_CMSIS.c ****   SVC_Setup(f##_);                                                             \
 397:../Dave/Generated/src/RTOS001/SRC/rt_CMSIS.c ****   _##f(a1,a2);                                                                 \
 398:../Dave/Generated/src/RTOS001/SRC/rt_CMSIS.c ****   __asm("" : rr : :);                                                          \
 399:../Dave/Generated/src/RTOS001/SRC/rt_CMSIS.c ****   return ret;                                                                  \
 400:../Dave/Generated/src/RTOS001/SRC/rt_CMSIS.c **** }
 401:../Dave/Generated/src/RTOS001/SRC/rt_CMSIS.c **** 
 402:../Dave/Generated/src/RTOS001/SRC/rt_CMSIS.c **** #endif
 403:../Dave/Generated/src/RTOS001/SRC/rt_CMSIS.c **** 
 404:../Dave/Generated/src/RTOS001/SRC/rt_CMSIS.c **** 
 405:../Dave/Generated/src/RTOS001/SRC/rt_CMSIS.c **** // Callback structure
 406:../Dave/Generated/src/RTOS001/SRC/rt_CMSIS.c **** typedef struct {
 407:../Dave/Generated/src/RTOS001/SRC/rt_CMSIS.c ****   void *fp;             // Function pointer
 408:../Dave/Generated/src/RTOS001/SRC/rt_CMSIS.c ****   void *arg;            // Function argument
 409:../Dave/Generated/src/RTOS001/SRC/rt_CMSIS.c **** } osCallback;
 410:../Dave/Generated/src/RTOS001/SRC/rt_CMSIS.c **** 
 411:../Dave/Generated/src/RTOS001/SRC/rt_CMSIS.c **** 
 412:../Dave/Generated/src/RTOS001/SRC/rt_CMSIS.c **** // OS Section definitions
 413:../Dave/Generated/src/RTOS001/SRC/rt_CMSIS.c **** #ifdef OS_SECTIONS_LINK_INFO
 414:../Dave/Generated/src/RTOS001/SRC/rt_CMSIS.c **** extern const uint32_t  os_section_id$$Base;
 415:../Dave/Generated/src/RTOS001/SRC/rt_CMSIS.c **** extern const uint32_t  os_section_id$$Limit;
 416:../Dave/Generated/src/RTOS001/SRC/rt_CMSIS.c **** #endif
 417:../Dave/Generated/src/RTOS001/SRC/rt_CMSIS.c **** 
 418:../Dave/Generated/src/RTOS001/SRC/rt_CMSIS.c **** // OS Stack Memory for Threads definitions
 419:../Dave/Generated/src/RTOS001/SRC/rt_CMSIS.c **** extern       uint64_t  os_stack_mem[];
 420:../Dave/Generated/src/RTOS001/SRC/rt_CMSIS.c **** extern const uint32_t  os_stack_sz;
 421:../Dave/Generated/src/RTOS001/SRC/rt_CMSIS.c **** 
 422:../Dave/Generated/src/RTOS001/SRC/rt_CMSIS.c **** // OS Timers external resources
 423:../Dave/Generated/src/RTOS001/SRC/rt_CMSIS.c **** extern const osThreadDef_t   os_thread_def_osTimerThread;
 424:../Dave/Generated/src/RTOS001/SRC/rt_CMSIS.c **** extern       osThreadId      osThreadId_osTimerThread;
 425:../Dave/Generated/src/RTOS001/SRC/rt_CMSIS.c **** extern const osMessageQDef_t os_messageQ_def_osTimerMessageQ;
 426:../Dave/Generated/src/RTOS001/SRC/rt_CMSIS.c **** extern       osMessageQId    osMessageQId_osTimerMessageQ;
 427:../Dave/Generated/src/RTOS001/SRC/rt_CMSIS.c **** 
 428:../Dave/Generated/src/RTOS001/SRC/rt_CMSIS.c **** 
 429:../Dave/Generated/src/RTOS001/SRC/rt_CMSIS.c **** // ==== Helper Functions ====
 430:../Dave/Generated/src/RTOS001/SRC/rt_CMSIS.c **** 
 431:../Dave/Generated/src/RTOS001/SRC/rt_CMSIS.c **** /// Convert timeout in millisec to system ticks
 432:../Dave/Generated/src/RTOS001/SRC/rt_CMSIS.c **** static uint32_t rt_ms2tick (uint32_t millisec) {
  27              		.loc 1 432 0
  28              		.cfi_startproc
  29              		@ args = 0, pretend = 0, frame = 0
  30              		@ frame_needed = 0, uses_anonymous_args = 0
  31              		@ link register save eliminated.
 433:../Dave/Generated/src/RTOS001/SRC/rt_CMSIS.c ****   uint32_t tick;
 434:../Dave/Generated/src/RTOS001/SRC/rt_CMSIS.c **** 
 435:../Dave/Generated/src/RTOS001/SRC/rt_CMSIS.c ****   if (millisec == osWaitForever) return 0xFFFF; // Indefinite timeout
  32              		.loc 1 435 0
  33 0000 B0F1FF3F 		cmp	r0, #-1
  34 0004 18D0     		beq	.L3
 436:../Dave/Generated/src/RTOS001/SRC/rt_CMSIS.c ****   if (millisec > 4000000) return 0xFFFE;        // Max ticks supported
  35              		.loc 1 436 0
  36 0006 4FF41063 		mov	r3, #2304
  37 000a C0F23D03 		movt	r3, 61
  38 000e 9842     		cmp	r0, r3
  39 0010 15D8     		bhi	.L4
 437:../Dave/Generated/src/RTOS001/SRC/rt_CMSIS.c **** 
 438:../Dave/Generated/src/RTOS001/SRC/rt_CMSIS.c ****   tick = ((1000 * millisec) + os_clockrate - 1)  / os_clockrate;
  40              		.loc 1 438 0
  41 0012 40F20003 		movw	r3, #:lower16:os_clockrate
  42 0016 C0F20003 		movt	r3, #:upper16:os_clockrate
  43 001a 1B68     		ldr	r3, [r3, #0]
  44 001c 03F1FF32 		add	r2, r3, #-1
  45 0020 4FF47A71 		mov	r1, #1000
  46 0024 01FB0020 		mla	r0, r1, r0, r2
  47 0028 B0FBF3F0 		udiv	r0, r0, r3
  48 002c 4FF6FE72 		movw	r2, #65534
  49 0030 9042     		cmp	r0, r2
  50 0032 28BF     		it	cs
  51 0034 1046     		movcs	r0, r2
  52 0036 7047     		bx	lr
  53              	.L3:
 435:../Dave/Generated/src/RTOS001/SRC/rt_CMSIS.c ****   if (millisec == osWaitForever) return 0xFFFF; // Indefinite timeout
  54              		.loc 1 435 0
  55 0038 4FF6FF70 		movw	r0, #65535
  56 003c 7047     		bx	lr
  57              	.L4:
 436:../Dave/Generated/src/RTOS001/SRC/rt_CMSIS.c ****   if (millisec > 4000000) return 0xFFFE;        // Max ticks supported
  58              		.loc 1 436 0
  59 003e 4FF6FE70 		movw	r0, #65534
 439:../Dave/Generated/src/RTOS001/SRC/rt_CMSIS.c ****   if (tick > 0xFFFE) return 0xFFFE;
 440:../Dave/Generated/src/RTOS001/SRC/rt_CMSIS.c ****   
 441:../Dave/Generated/src/RTOS001/SRC/rt_CMSIS.c ****   return tick;
 442:../Dave/Generated/src/RTOS001/SRC/rt_CMSIS.c **** }
  60              		.loc 1 442 0
  61 0042 7047     		bx	lr
  62              		.cfi_endproc
  63              	.LFE101:
  65              		.section	.text.rt_tid2ptcb,"ax",%progbits
  66              		.align	2
  67              		.thumb
  68              		.thumb_func
  70              	rt_tid2ptcb:
  71              	.LFB102:
 443:../Dave/Generated/src/RTOS001/SRC/rt_CMSIS.c **** 
 444:../Dave/Generated/src/RTOS001/SRC/rt_CMSIS.c **** /// Convert Thread ID to TCB pointer
 445:../Dave/Generated/src/RTOS001/SRC/rt_CMSIS.c **** static P_TCB rt_tid2ptcb (osThreadId thread_id) {
  72              		.loc 1 445 0
  73              		.cfi_startproc
  74              		@ args = 0, pretend = 0, frame = 0
  75              		@ frame_needed = 0, uses_anonymous_args = 0
  76              		@ link register save eliminated.
 446:../Dave/Generated/src/RTOS001/SRC/rt_CMSIS.c ****   P_TCB ptcb;
 447:../Dave/Generated/src/RTOS001/SRC/rt_CMSIS.c **** 
 448:../Dave/Generated/src/RTOS001/SRC/rt_CMSIS.c ****   if (thread_id == NULL) return NULL;
  77              		.loc 1 448 0
  78 0000 0346     		mov	r3, r0
  79 0002 40B1     		cbz	r0, .L7
 449:../Dave/Generated/src/RTOS001/SRC/rt_CMSIS.c **** 
 450:../Dave/Generated/src/RTOS001/SRC/rt_CMSIS.c ****   if ((uint32_t)thread_id & 3) return NULL;
  80              		.loc 1 450 0
  81 0004 10F0030F 		tst	r0, #3
  82 0008 08D1     		bne	.L8
 451:../Dave/Generated/src/RTOS001/SRC/rt_CMSIS.c **** 
 452:../Dave/Generated/src/RTOS001/SRC/rt_CMSIS.c **** #ifdef OS_SECTIONS_LINK_INFO
 453:../Dave/Generated/src/RTOS001/SRC/rt_CMSIS.c ****   if ((os_section_id$$Base != 0) && (os_section_id$$Limit != 0)) {
 454:../Dave/Generated/src/RTOS001/SRC/rt_CMSIS.c ****     if (thread_id  < (osThreadId)os_section_id$$Base)  return NULL;
 455:../Dave/Generated/src/RTOS001/SRC/rt_CMSIS.c ****     if (thread_id >= (osThreadId)os_section_id$$Limit) return NULL;
 456:../Dave/Generated/src/RTOS001/SRC/rt_CMSIS.c ****   }
 457:../Dave/Generated/src/RTOS001/SRC/rt_CMSIS.c **** #endif
 458:../Dave/Generated/src/RTOS001/SRC/rt_CMSIS.c **** 
 459:../Dave/Generated/src/RTOS001/SRC/rt_CMSIS.c ****   ptcb = thread_id;
 460:../Dave/Generated/src/RTOS001/SRC/rt_CMSIS.c **** 
 461:../Dave/Generated/src/RTOS001/SRC/rt_CMSIS.c ****   if (ptcb->cb_type != TCB) return NULL;
  83              		.loc 1 461 0
  84 000a 0078     		ldrb	r0, [r0, #0]	@ zero_extendqisi2
  85 000c 0028     		cmp	r0, #0
  86 000e 0CBF     		ite	eq
  87 0010 1846     		moveq	r0, r3
  88 0012 0020     		movne	r0, #0
  89 0014 7047     		bx	lr
  90              	.L7:
 448:../Dave/Generated/src/RTOS001/SRC/rt_CMSIS.c ****   if (thread_id == NULL) return NULL;
  91              		.loc 1 448 0
  92 0016 4FF00000 		mov	r0, #0
  93 001a 7047     		bx	lr
  94              	.L8:
 450:../Dave/Generated/src/RTOS001/SRC/rt_CMSIS.c ****   if ((uint32_t)thread_id & 3) return NULL;
  95              		.loc 1 450 0
  96 001c 4FF00000 		mov	r0, #0
 462:../Dave/Generated/src/RTOS001/SRC/rt_CMSIS.c **** 
 463:../Dave/Generated/src/RTOS001/SRC/rt_CMSIS.c ****   return ptcb;
 464:../Dave/Generated/src/RTOS001/SRC/rt_CMSIS.c **** }
  97              		.loc 1 464 0
  98 0020 7047     		bx	lr
  99              		.cfi_endproc
 100              	.LFE102:
 102 0022 00BF     		.section	.text.rt_id2obj,"ax",%progbits
 103              		.align	2
 104              		.thumb
 105              		.thumb_func
 107              	rt_id2obj:
 108              	.LFB103:
 465:../Dave/Generated/src/RTOS001/SRC/rt_CMSIS.c **** 
 466:../Dave/Generated/src/RTOS001/SRC/rt_CMSIS.c **** /// Convert ID pointer to Object pointer
 467:../Dave/Generated/src/RTOS001/SRC/rt_CMSIS.c **** static void *rt_id2obj (void *id) {
 109              		.loc 1 467 0
 110              		.cfi_startproc
 111              		@ args = 0, pretend = 0, frame = 0
 112              		@ frame_needed = 0, uses_anonymous_args = 0
 113              		@ link register save eliminated.
 468:../Dave/Generated/src/RTOS001/SRC/rt_CMSIS.c **** 
 469:../Dave/Generated/src/RTOS001/SRC/rt_CMSIS.c ****   if ((uint32_t)id & 3) return NULL;
 114              		.loc 1 469 0
 115 0000 00F00303 		and	r3, r0, #3
 470:../Dave/Generated/src/RTOS001/SRC/rt_CMSIS.c **** 
 471:../Dave/Generated/src/RTOS001/SRC/rt_CMSIS.c **** #ifdef OS_SECTIONS_LINK_INFO
 472:../Dave/Generated/src/RTOS001/SRC/rt_CMSIS.c ****   if ((os_section_id$$Base != 0) && (os_section_id$$Limit != 0)) {
 473:../Dave/Generated/src/RTOS001/SRC/rt_CMSIS.c ****     if (id  < (void *)os_section_id$$Base)  return NULL;
 474:../Dave/Generated/src/RTOS001/SRC/rt_CMSIS.c ****     if (id >= (void *)os_section_id$$Limit) return NULL;
 475:../Dave/Generated/src/RTOS001/SRC/rt_CMSIS.c ****   }
 476:../Dave/Generated/src/RTOS001/SRC/rt_CMSIS.c **** #endif
 477:../Dave/Generated/src/RTOS001/SRC/rt_CMSIS.c **** 
 478:../Dave/Generated/src/RTOS001/SRC/rt_CMSIS.c ****   return id;
 479:../Dave/Generated/src/RTOS001/SRC/rt_CMSIS.c **** }
 116              		.loc 1 479 0
 117 0004 002B     		cmp	r3, #0
 118 0006 18BF     		it	ne
 119 0008 0020     		movne	r0, #0
 120 000a 7047     		bx	lr
 121              		.cfi_endproc
 122              	.LFE103:
 124              		.comm	os_initialized,1,1
 125              		.comm	os_running,1,1
 126              		.section	.text.svcKernelInitialize,"ax",%progbits
 127              		.align	2
 128              		.global	svcKernelInitialize
 129              		.thumb
 130              		.thumb_func
 132              	svcKernelInitialize:
 133              	.LFB108:
 480:../Dave/Generated/src/RTOS001/SRC/rt_CMSIS.c **** 
 481:../Dave/Generated/src/RTOS001/SRC/rt_CMSIS.c **** 
 482:../Dave/Generated/src/RTOS001/SRC/rt_CMSIS.c **** // ==== Kernel Control ====
 483:../Dave/Generated/src/RTOS001/SRC/rt_CMSIS.c **** 
 484:../Dave/Generated/src/RTOS001/SRC/rt_CMSIS.c **** uint8_t os_initialized;                         // Kernel Initialized flag
 485:../Dave/Generated/src/RTOS001/SRC/rt_CMSIS.c **** uint8_t os_running;                             // Kernel Running flag
 486:../Dave/Generated/src/RTOS001/SRC/rt_CMSIS.c **** 
 487:../Dave/Generated/src/RTOS001/SRC/rt_CMSIS.c **** // Kernel Control Service Calls declarations
 488:../Dave/Generated/src/RTOS001/SRC/rt_CMSIS.c **** SVC_0_1(svcKernelInitialize, osStatus, RET_osStatus)
 489:../Dave/Generated/src/RTOS001/SRC/rt_CMSIS.c **** SVC_0_1(svcKernelStart,      osStatus, RET_osStatus)
 490:../Dave/Generated/src/RTOS001/SRC/rt_CMSIS.c **** SVC_0_1(svcKernelRunning,    int32_t,  RET_int32_t)
 491:../Dave/Generated/src/RTOS001/SRC/rt_CMSIS.c **** SVC_0_1(svcKernelSysTick,    uint32_t, RET_uint32_t)
 492:../Dave/Generated/src/RTOS001/SRC/rt_CMSIS.c **** 
 493:../Dave/Generated/src/RTOS001/SRC/rt_CMSIS.c **** static void  sysThreadError   (osStatus status);
 494:../Dave/Generated/src/RTOS001/SRC/rt_CMSIS.c **** osThreadId   svcThreadCreate  (const osThreadDef_t *thread_def, void *argument);
 495:../Dave/Generated/src/RTOS001/SRC/rt_CMSIS.c **** osMessageQId svcMessageCreate (const osMessageQDef_t *queue_def, osThreadId thread_id);
 496:../Dave/Generated/src/RTOS001/SRC/rt_CMSIS.c **** 
 497:../Dave/Generated/src/RTOS001/SRC/rt_CMSIS.c **** // Kernel Control Service Calls
 498:../Dave/Generated/src/RTOS001/SRC/rt_CMSIS.c **** 
 499:../Dave/Generated/src/RTOS001/SRC/rt_CMSIS.c **** /// Initialize the RTOS Kernel for creating objects
 500:../Dave/Generated/src/RTOS001/SRC/rt_CMSIS.c **** osStatus svcKernelInitialize (void) {
 134              		.loc 1 500 0
 135              		.cfi_startproc
 136              		@ args = 0, pretend = 0, frame = 0
 137              		@ frame_needed = 0, uses_anonymous_args = 0
 138 0000 08B5     		push	{r3, lr}
 139              	.LCFI0:
 140              		.cfi_def_cfa_offset 8
 141              		.cfi_offset 3, -8
 142              		.cfi_offset 14, -4
 501:../Dave/Generated/src/RTOS001/SRC/rt_CMSIS.c ****   int ret;
 502:../Dave/Generated/src/RTOS001/SRC/rt_CMSIS.c **** 
 503:../Dave/Generated/src/RTOS001/SRC/rt_CMSIS.c ****   if (!os_initialized) {
 143              		.loc 1 503 0
 144 0002 40F20003 		movw	r3, #:lower16:os_initialized
 145 0006 C0F20003 		movt	r3, #:upper16:os_initialized
 146 000a 1B78     		ldrb	r3, [r3, #0]	@ zero_extendqisi2
 147 000c 73B9     		cbnz	r3, .L13
 504:../Dave/Generated/src/RTOS001/SRC/rt_CMSIS.c **** 
 505:../Dave/Generated/src/RTOS001/SRC/rt_CMSIS.c ****     // Init Thread Stack Memory (must be 8-byte aligned)
 506:../Dave/Generated/src/RTOS001/SRC/rt_CMSIS.c ****     if ((uint32_t)os_stack_mem & 7) return osErrorNoMemory;
 507:../Dave/Generated/src/RTOS001/SRC/rt_CMSIS.c ****     ret = rt_init_mem(os_stack_mem, os_stack_sz);
 148              		.loc 1 507 0
 149 000e 40F20003 		movw	r3, #:lower16:os_stack_sz
 150 0012 C0F20003 		movt	r3, #:upper16:os_stack_sz
 151 0016 40F20000 		movw	r0, #:lower16:os_stack_mem
 152 001a C0F20000 		movt	r0, #:upper16:os_stack_mem
 153 001e 1968     		ldr	r1, [r3, #0]
 154 0020 FFF7FEFF 		bl	rt_init_mem
 508:../Dave/Generated/src/RTOS001/SRC/rt_CMSIS.c ****     if (ret != 0) return osErrorNoMemory;
 155              		.loc 1 508 0
 156 0024 0028     		cmp	r0, #0
 157 0026 38D1     		bne	.L16
 509:../Dave/Generated/src/RTOS001/SRC/rt_CMSIS.c **** 
 510:../Dave/Generated/src/RTOS001/SRC/rt_CMSIS.c ****     rt_sys_init();                              // RTX System Initialization
 158              		.loc 1 510 0
 159 0028 FFF7FEFF 		bl	rt_sys_init
 160              	.L13:
 511:../Dave/Generated/src/RTOS001/SRC/rt_CMSIS.c ****   }
 512:../Dave/Generated/src/RTOS001/SRC/rt_CMSIS.c **** 
 513:../Dave/Generated/src/RTOS001/SRC/rt_CMSIS.c ****   os_tsk.run->prio = 255;                       // Highest priority
 161              		.loc 1 513 0
 162 002c 40F20003 		movw	r3, #:lower16:os_tsk
 163 0030 C0F20003 		movt	r3, #:upper16:os_tsk
 164 0034 1B68     		ldr	r3, [r3, #0]
 165 0036 4FF0FF02 		mov	r2, #255
 166 003a 9A70     		strb	r2, [r3, #2]
 514:../Dave/Generated/src/RTOS001/SRC/rt_CMSIS.c **** 
 515:../Dave/Generated/src/RTOS001/SRC/rt_CMSIS.c ****   if (!os_initialized) {
 167              		.loc 1 515 0
 168 003c 40F20003 		movw	r3, #:lower16:os_initialized
 169 0040 C0F20003 		movt	r3, #:upper16:os_initialized
 170 0044 1B78     		ldrb	r3, [r3, #0]	@ zero_extendqisi2
 171 0046 CBB9     		cbnz	r3, .L15
 516:../Dave/Generated/src/RTOS001/SRC/rt_CMSIS.c ****     // Create OS Timers resources (Message Queue & Thread)
 517:../Dave/Generated/src/RTOS001/SRC/rt_CMSIS.c ****     osMessageQId_osTimerMessageQ = svcMessageCreate (&os_messageQ_def_osTimerMessageQ, NULL);
 172              		.loc 1 517 0
 173 0048 40F20000 		movw	r0, #:lower16:os_messageQ_def_osTimerMessageQ
 174 004c C0F20000 		movt	r0, #:upper16:os_messageQ_def_osTimerMessageQ
 175 0050 4FF00001 		mov	r1, #0
 176 0054 FFF7FEFF 		bl	svcMessageCreate
 177 0058 40F20003 		movw	r3, #:lower16:osMessageQId_osTimerMessageQ
 178 005c C0F20003 		movt	r3, #:upper16:osMessageQId_osTimerMessageQ
 179 0060 1860     		str	r0, [r3, #0]
 518:../Dave/Generated/src/RTOS001/SRC/rt_CMSIS.c ****     osThreadId_osTimerThread = svcThreadCreate(&os_thread_def_osTimerThread, NULL);
 180              		.loc 1 518 0
 181 0062 40F20000 		movw	r0, #:lower16:os_thread_def_osTimerThread
 182 0066 C0F20000 		movt	r0, #:upper16:os_thread_def_osTimerThread
 183 006a 4FF00001 		mov	r1, #0
 184 006e FFF7FEFF 		bl	svcThreadCreate
 185 0072 40F20003 		movw	r3, #:lower16:osThreadId_osTimerThread
 186 0076 C0F20003 		movt	r3, #:upper16:osThreadId_osTimerThread
 187 007a 1860     		str	r0, [r3, #0]
 188              	.L15:
 519:../Dave/Generated/src/RTOS001/SRC/rt_CMSIS.c ****   }
 520:../Dave/Generated/src/RTOS001/SRC/rt_CMSIS.c **** 
 521:../Dave/Generated/src/RTOS001/SRC/rt_CMSIS.c ****   sysThreadError(osOK);
 522:../Dave/Generated/src/RTOS001/SRC/rt_CMSIS.c **** 
 523:../Dave/Generated/src/RTOS001/SRC/rt_CMSIS.c ****   os_initialized = 1;
 189              		.loc 1 523 0
 190 007c 40F20003 		movw	r3, #:lower16:os_initialized
 191 0080 C0F20003 		movt	r3, #:upper16:os_initialized
 192 0084 4FF00102 		mov	r2, #1
 193 0088 1A70     		strb	r2, [r3, #0]
 524:../Dave/Generated/src/RTOS001/SRC/rt_CMSIS.c ****   os_running = 0;
 194              		.loc 1 524 0
 195 008a 40F20003 		movw	r3, #:lower16:os_running
 196 008e C0F20003 		movt	r3, #:upper16:os_running
 197 0092 4FF00000 		mov	r0, #0
 198 0096 1870     		strb	r0, [r3, #0]
 525:../Dave/Generated/src/RTOS001/SRC/rt_CMSIS.c **** 
 526:../Dave/Generated/src/RTOS001/SRC/rt_CMSIS.c ****   return osOK;
 199              		.loc 1 526 0
 200 0098 08BD     		pop	{r3, pc}
 201              	.L16:
 508:../Dave/Generated/src/RTOS001/SRC/rt_CMSIS.c ****     if (ret != 0) return osErrorNoMemory;
 202              		.loc 1 508 0
 203 009a 4FF08500 		mov	r0, #133
 527:../Dave/Generated/src/RTOS001/SRC/rt_CMSIS.c **** }
 204              		.loc 1 527 0
 205 009e 08BD     		pop	{r3, pc}
 206              		.cfi_endproc
 207              	.LFE108:
 209              		.section	.text.svcKernelStart,"ax",%progbits
 210              		.align	2
 211              		.global	svcKernelStart
 212              		.thumb
 213              		.thumb_func
 215              	svcKernelStart:
 216              	.LFB109:
 528:../Dave/Generated/src/RTOS001/SRC/rt_CMSIS.c **** 
 529:../Dave/Generated/src/RTOS001/SRC/rt_CMSIS.c **** /// Start the RTOS Kernel
 530:../Dave/Generated/src/RTOS001/SRC/rt_CMSIS.c **** osStatus svcKernelStart (void) {
 217              		.loc 1 530 0
 218              		.cfi_startproc
 219              		@ args = 0, pretend = 0, frame = 0
 220              		@ frame_needed = 0, uses_anonymous_args = 0
 221 0000 10B5     		push	{r4, lr}
 222              	.LCFI1:
 223              		.cfi_def_cfa_offset 8
 224              		.cfi_offset 4, -8
 225              		.cfi_offset 14, -4
 531:../Dave/Generated/src/RTOS001/SRC/rt_CMSIS.c **** 
 532:../Dave/Generated/src/RTOS001/SRC/rt_CMSIS.c ****   if (os_running) return osOK;
 226              		.loc 1 532 0
 227 0002 40F20003 		movw	r3, #:lower16:os_running
 228 0006 C0F20003 		movt	r3, #:upper16:os_running
 229 000a 1B78     		ldrb	r3, [r3, #0]	@ zero_extendqisi2
 230 000c 53BB     		cbnz	r3, .L18
 533:../Dave/Generated/src/RTOS001/SRC/rt_CMSIS.c **** 
 534:../Dave/Generated/src/RTOS001/SRC/rt_CMSIS.c ****   rt_tsk_prio(0, os_tsk.run->prio_base);        // Restore priority
 231              		.loc 1 534 0
 232 000e 40F20004 		movw	r4, #:lower16:os_tsk
 233 0012 C0F20004 		movt	r4, #:upper16:os_tsk
 234 0016 2368     		ldr	r3, [r4, #0]
 235 0018 4FF00000 		mov	r0, #0
 236 001c 93F82410 		ldrb	r1, [r3, #36]	@ zero_extendqisi2
 237 0020 FFF7FEFF 		bl	rt_tsk_prio
 535:../Dave/Generated/src/RTOS001/SRC/rt_CMSIS.c ****   if (os_tsk.run->task_id == 0xFF) {            // Idle Thread
 238              		.loc 1 535 0
 239 0024 2268     		ldr	r2, [r4, #0]
 240 0026 D378     		ldrb	r3, [r2, #3]	@ zero_extendqisi2
 241 0028 FF2B     		cmp	r3, #255
 242 002a 04D1     		bne	.L19
 536:../Dave/Generated/src/RTOS001/SRC/rt_CMSIS.c ****     __set_PSP(os_tsk.run->tsk_stack + 8*4);     // Setup PSP
 243              		.loc 1 536 0
 244 002c 936A     		ldr	r3, [r2, #40]
 245 002e 03F12003 		add	r3, r3, #32
 246              	.LBB204:
 247              	.LBB205:
 248              		.file 2 "C:\\DAVE-3.1.10\\eclipse\\/../CMSIS/Include/core_cmFunc.h"
   1:C:\DAVE-3.1.10\eclipse\/../CMSIS/Include\core_cmFunc.h **** /**************************************************************************//**
   2:C:\DAVE-3.1.10\eclipse\/../CMSIS/Include\core_cmFunc.h ****  * @file     core_cmFunc.h
   3:C:\DAVE-3.1.10\eclipse\/../CMSIS/Include\core_cmFunc.h ****  * @brief    CMSIS Cortex-M Core Function Access Header File
   4:C:\DAVE-3.1.10\eclipse\/../CMSIS/Include\core_cmFunc.h ****  * @version  V3.20
   5:C:\DAVE-3.1.10\eclipse\/../CMSIS/Include\core_cmFunc.h ****  * @date     25. February 2013
   6:C:\DAVE-3.1.10\eclipse\/../CMSIS/Include\core_cmFunc.h ****  *
   7:C:\DAVE-3.1.10\eclipse\/../CMSIS/Include\core_cmFunc.h ****  * @note
   8:C:\DAVE-3.1.10\eclipse\/../CMSIS/Include\core_cmFunc.h ****  *
   9:C:\DAVE-3.1.10\eclipse\/../CMSIS/Include\core_cmFunc.h ****  ******************************************************************************/
  10:C:\DAVE-3.1.10\eclipse\/../CMSIS/Include\core_cmFunc.h **** /* Copyright (c) 2009 - 2013 ARM LIMITED
  11:C:\DAVE-3.1.10\eclipse\/../CMSIS/Include\core_cmFunc.h **** 
  12:C:\DAVE-3.1.10\eclipse\/../CMSIS/Include\core_cmFunc.h ****    All rights reserved.
  13:C:\DAVE-3.1.10\eclipse\/../CMSIS/Include\core_cmFunc.h ****    Redistribution and use in source and binary forms, with or without
  14:C:\DAVE-3.1.10\eclipse\/../CMSIS/Include\core_cmFunc.h ****    modification, are permitted provided that the following conditions are met:
  15:C:\DAVE-3.1.10\eclipse\/../CMSIS/Include\core_cmFunc.h ****    - Redistributions of source code must retain the above copyright
  16:C:\DAVE-3.1.10\eclipse\/../CMSIS/Include\core_cmFunc.h ****      notice, this list of conditions and the following disclaimer.
  17:C:\DAVE-3.1.10\eclipse\/../CMSIS/Include\core_cmFunc.h ****    - Redistributions in binary form must reproduce the above copyright
  18:C:\DAVE-3.1.10\eclipse\/../CMSIS/Include\core_cmFunc.h ****      notice, this list of conditions and the following disclaimer in the
  19:C:\DAVE-3.1.10\eclipse\/../CMSIS/Include\core_cmFunc.h ****      documentation and/or other materials provided with the distribution.
  20:C:\DAVE-3.1.10\eclipse\/../CMSIS/Include\core_cmFunc.h ****    - Neither the name of ARM nor the names of its contributors may be used
  21:C:\DAVE-3.1.10\eclipse\/../CMSIS/Include\core_cmFunc.h ****      to endorse or promote products derived from this software without
  22:C:\DAVE-3.1.10\eclipse\/../CMSIS/Include\core_cmFunc.h ****      specific prior written permission.
  23:C:\DAVE-3.1.10\eclipse\/../CMSIS/Include\core_cmFunc.h ****    *
  24:C:\DAVE-3.1.10\eclipse\/../CMSIS/Include\core_cmFunc.h ****    THIS SOFTWARE IS PROVIDED BY THE COPYRIGHT HOLDERS AND CONTRIBUTORS "AS IS"
  25:C:\DAVE-3.1.10\eclipse\/../CMSIS/Include\core_cmFunc.h ****    AND ANY EXPRESS OR IMPLIED WARRANTIES, INCLUDING, BUT NOT LIMITED TO, THE
  26:C:\DAVE-3.1.10\eclipse\/../CMSIS/Include\core_cmFunc.h ****    IMPLIED WARRANTIES OF MERCHANTABILITY AND FITNESS FOR A PARTICULAR PURPOSE
  27:C:\DAVE-3.1.10\eclipse\/../CMSIS/Include\core_cmFunc.h ****    ARE DISCLAIMED. IN NO EVENT SHALL COPYRIGHT HOLDERS AND CONTRIBUTORS BE
  28:C:\DAVE-3.1.10\eclipse\/../CMSIS/Include\core_cmFunc.h ****    LIABLE FOR ANY DIRECT, INDIRECT, INCIDENTAL, SPECIAL, EXEMPLARY, OR
  29:C:\DAVE-3.1.10\eclipse\/../CMSIS/Include\core_cmFunc.h ****    CONSEQUENTIAL DAMAGES (INCLUDING, BUT NOT LIMITED TO, PROCUREMENT OF
  30:C:\DAVE-3.1.10\eclipse\/../CMSIS/Include\core_cmFunc.h ****    SUBSTITUTE GOODS OR SERVICES; LOSS OF USE, DATA, OR PROFITS; OR BUSINESS
  31:C:\DAVE-3.1.10\eclipse\/../CMSIS/Include\core_cmFunc.h ****    INTERRUPTION) HOWEVER CAUSED AND ON ANY THEORY OF LIABILITY, WHETHER IN
  32:C:\DAVE-3.1.10\eclipse\/../CMSIS/Include\core_cmFunc.h ****    CONTRACT, STRICT LIABILITY, OR TORT (INCLUDING NEGLIGENCE OR OTHERWISE)
  33:C:\DAVE-3.1.10\eclipse\/../CMSIS/Include\core_cmFunc.h ****    ARISING IN ANY WAY OUT OF THE USE OF THIS SOFTWARE, EVEN IF ADVISED OF THE
  34:C:\DAVE-3.1.10\eclipse\/../CMSIS/Include\core_cmFunc.h ****    POSSIBILITY OF SUCH DAMAGE.
  35:C:\DAVE-3.1.10\eclipse\/../CMSIS/Include\core_cmFunc.h ****    ---------------------------------------------------------------------------*/
  36:C:\DAVE-3.1.10\eclipse\/../CMSIS/Include\core_cmFunc.h **** 
  37:C:\DAVE-3.1.10\eclipse\/../CMSIS/Include\core_cmFunc.h **** 
  38:C:\DAVE-3.1.10\eclipse\/../CMSIS/Include\core_cmFunc.h **** #ifndef __CORE_CMFUNC_H
  39:C:\DAVE-3.1.10\eclipse\/../CMSIS/Include\core_cmFunc.h **** #define __CORE_CMFUNC_H
  40:C:\DAVE-3.1.10\eclipse\/../CMSIS/Include\core_cmFunc.h **** 
  41:C:\DAVE-3.1.10\eclipse\/../CMSIS/Include\core_cmFunc.h **** 
  42:C:\DAVE-3.1.10\eclipse\/../CMSIS/Include\core_cmFunc.h **** /* ###########################  Core Function Access  ########################### */
  43:C:\DAVE-3.1.10\eclipse\/../CMSIS/Include\core_cmFunc.h **** /** \ingroup  CMSIS_Core_FunctionInterface
  44:C:\DAVE-3.1.10\eclipse\/../CMSIS/Include\core_cmFunc.h ****     \defgroup CMSIS_Core_RegAccFunctions CMSIS Core Register Access Functions
  45:C:\DAVE-3.1.10\eclipse\/../CMSIS/Include\core_cmFunc.h ****   @{
  46:C:\DAVE-3.1.10\eclipse\/../CMSIS/Include\core_cmFunc.h ****  */
  47:C:\DAVE-3.1.10\eclipse\/../CMSIS/Include\core_cmFunc.h **** 
  48:C:\DAVE-3.1.10\eclipse\/../CMSIS/Include\core_cmFunc.h **** #if   defined ( __CC_ARM ) /*------------------RealView Compiler -----------------*/
  49:C:\DAVE-3.1.10\eclipse\/../CMSIS/Include\core_cmFunc.h **** /* ARM armcc specific functions */
  50:C:\DAVE-3.1.10\eclipse\/../CMSIS/Include\core_cmFunc.h **** 
  51:C:\DAVE-3.1.10\eclipse\/../CMSIS/Include\core_cmFunc.h **** #if (__ARMCC_VERSION < 400677)
  52:C:\DAVE-3.1.10\eclipse\/../CMSIS/Include\core_cmFunc.h ****   #error "Please use ARM Compiler Toolchain V4.0.677 or later!"
  53:C:\DAVE-3.1.10\eclipse\/../CMSIS/Include\core_cmFunc.h **** #endif
  54:C:\DAVE-3.1.10\eclipse\/../CMSIS/Include\core_cmFunc.h **** 
  55:C:\DAVE-3.1.10\eclipse\/../CMSIS/Include\core_cmFunc.h **** /* intrinsic void __enable_irq();     */
  56:C:\DAVE-3.1.10\eclipse\/../CMSIS/Include\core_cmFunc.h **** /* intrinsic void __disable_irq();    */
  57:C:\DAVE-3.1.10\eclipse\/../CMSIS/Include\core_cmFunc.h **** 
  58:C:\DAVE-3.1.10\eclipse\/../CMSIS/Include\core_cmFunc.h **** /** \brief  Get Control Register
  59:C:\DAVE-3.1.10\eclipse\/../CMSIS/Include\core_cmFunc.h **** 
  60:C:\DAVE-3.1.10\eclipse\/../CMSIS/Include\core_cmFunc.h ****     This function returns the content of the Control Register.
  61:C:\DAVE-3.1.10\eclipse\/../CMSIS/Include\core_cmFunc.h **** 
  62:C:\DAVE-3.1.10\eclipse\/../CMSIS/Include\core_cmFunc.h ****     \return               Control Register value
  63:C:\DAVE-3.1.10\eclipse\/../CMSIS/Include\core_cmFunc.h ****  */
  64:C:\DAVE-3.1.10\eclipse\/../CMSIS/Include\core_cmFunc.h **** __STATIC_INLINE uint32_t __get_CONTROL(void)
  65:C:\DAVE-3.1.10\eclipse\/../CMSIS/Include\core_cmFunc.h **** {
  66:C:\DAVE-3.1.10\eclipse\/../CMSIS/Include\core_cmFunc.h ****   register uint32_t __regControl         __ASM("control");
  67:C:\DAVE-3.1.10\eclipse\/../CMSIS/Include\core_cmFunc.h ****   return(__regControl);
  68:C:\DAVE-3.1.10\eclipse\/../CMSIS/Include\core_cmFunc.h **** }
  69:C:\DAVE-3.1.10\eclipse\/../CMSIS/Include\core_cmFunc.h **** 
  70:C:\DAVE-3.1.10\eclipse\/../CMSIS/Include\core_cmFunc.h **** 
  71:C:\DAVE-3.1.10\eclipse\/../CMSIS/Include\core_cmFunc.h **** /** \brief  Set Control Register
  72:C:\DAVE-3.1.10\eclipse\/../CMSIS/Include\core_cmFunc.h **** 
  73:C:\DAVE-3.1.10\eclipse\/../CMSIS/Include\core_cmFunc.h ****     This function writes the given value to the Control Register.
  74:C:\DAVE-3.1.10\eclipse\/../CMSIS/Include\core_cmFunc.h **** 
  75:C:\DAVE-3.1.10\eclipse\/../CMSIS/Include\core_cmFunc.h ****     \param [in]    control  Control Register value to set
  76:C:\DAVE-3.1.10\eclipse\/../CMSIS/Include\core_cmFunc.h ****  */
  77:C:\DAVE-3.1.10\eclipse\/../CMSIS/Include\core_cmFunc.h **** __STATIC_INLINE void __set_CONTROL(uint32_t control)
  78:C:\DAVE-3.1.10\eclipse\/../CMSIS/Include\core_cmFunc.h **** {
  79:C:\DAVE-3.1.10\eclipse\/../CMSIS/Include\core_cmFunc.h ****   register uint32_t __regControl         __ASM("control");
  80:C:\DAVE-3.1.10\eclipse\/../CMSIS/Include\core_cmFunc.h ****   __regControl = control;
  81:C:\DAVE-3.1.10\eclipse\/../CMSIS/Include\core_cmFunc.h **** }
  82:C:\DAVE-3.1.10\eclipse\/../CMSIS/Include\core_cmFunc.h **** 
  83:C:\DAVE-3.1.10\eclipse\/../CMSIS/Include\core_cmFunc.h **** 
  84:C:\DAVE-3.1.10\eclipse\/../CMSIS/Include\core_cmFunc.h **** /** \brief  Get IPSR Register
  85:C:\DAVE-3.1.10\eclipse\/../CMSIS/Include\core_cmFunc.h **** 
  86:C:\DAVE-3.1.10\eclipse\/../CMSIS/Include\core_cmFunc.h ****     This function returns the content of the IPSR Register.
  87:C:\DAVE-3.1.10\eclipse\/../CMSIS/Include\core_cmFunc.h **** 
  88:C:\DAVE-3.1.10\eclipse\/../CMSIS/Include\core_cmFunc.h ****     \return               IPSR Register value
  89:C:\DAVE-3.1.10\eclipse\/../CMSIS/Include\core_cmFunc.h ****  */
  90:C:\DAVE-3.1.10\eclipse\/../CMSIS/Include\core_cmFunc.h **** __STATIC_INLINE uint32_t __get_IPSR(void)
  91:C:\DAVE-3.1.10\eclipse\/../CMSIS/Include\core_cmFunc.h **** {
  92:C:\DAVE-3.1.10\eclipse\/../CMSIS/Include\core_cmFunc.h ****   register uint32_t __regIPSR          __ASM("ipsr");
  93:C:\DAVE-3.1.10\eclipse\/../CMSIS/Include\core_cmFunc.h ****   return(__regIPSR);
  94:C:\DAVE-3.1.10\eclipse\/../CMSIS/Include\core_cmFunc.h **** }
  95:C:\DAVE-3.1.10\eclipse\/../CMSIS/Include\core_cmFunc.h **** 
  96:C:\DAVE-3.1.10\eclipse\/../CMSIS/Include\core_cmFunc.h **** 
  97:C:\DAVE-3.1.10\eclipse\/../CMSIS/Include\core_cmFunc.h **** /** \brief  Get APSR Register
  98:C:\DAVE-3.1.10\eclipse\/../CMSIS/Include\core_cmFunc.h **** 
  99:C:\DAVE-3.1.10\eclipse\/../CMSIS/Include\core_cmFunc.h ****     This function returns the content of the APSR Register.
 100:C:\DAVE-3.1.10\eclipse\/../CMSIS/Include\core_cmFunc.h **** 
 101:C:\DAVE-3.1.10\eclipse\/../CMSIS/Include\core_cmFunc.h ****     \return               APSR Register value
 102:C:\DAVE-3.1.10\eclipse\/../CMSIS/Include\core_cmFunc.h ****  */
 103:C:\DAVE-3.1.10\eclipse\/../CMSIS/Include\core_cmFunc.h **** __STATIC_INLINE uint32_t __get_APSR(void)
 104:C:\DAVE-3.1.10\eclipse\/../CMSIS/Include\core_cmFunc.h **** {
 105:C:\DAVE-3.1.10\eclipse\/../CMSIS/Include\core_cmFunc.h ****   register uint32_t __regAPSR          __ASM("apsr");
 106:C:\DAVE-3.1.10\eclipse\/../CMSIS/Include\core_cmFunc.h ****   return(__regAPSR);
 107:C:\DAVE-3.1.10\eclipse\/../CMSIS/Include\core_cmFunc.h **** }
 108:C:\DAVE-3.1.10\eclipse\/../CMSIS/Include\core_cmFunc.h **** 
 109:C:\DAVE-3.1.10\eclipse\/../CMSIS/Include\core_cmFunc.h **** 
 110:C:\DAVE-3.1.10\eclipse\/../CMSIS/Include\core_cmFunc.h **** /** \brief  Get xPSR Register
 111:C:\DAVE-3.1.10\eclipse\/../CMSIS/Include\core_cmFunc.h **** 
 112:C:\DAVE-3.1.10\eclipse\/../CMSIS/Include\core_cmFunc.h ****     This function returns the content of the xPSR Register.
 113:C:\DAVE-3.1.10\eclipse\/../CMSIS/Include\core_cmFunc.h **** 
 114:C:\DAVE-3.1.10\eclipse\/../CMSIS/Include\core_cmFunc.h ****     \return               xPSR Register value
 115:C:\DAVE-3.1.10\eclipse\/../CMSIS/Include\core_cmFunc.h ****  */
 116:C:\DAVE-3.1.10\eclipse\/../CMSIS/Include\core_cmFunc.h **** __STATIC_INLINE uint32_t __get_xPSR(void)
 117:C:\DAVE-3.1.10\eclipse\/../CMSIS/Include\core_cmFunc.h **** {
 118:C:\DAVE-3.1.10\eclipse\/../CMSIS/Include\core_cmFunc.h ****   register uint32_t __regXPSR          __ASM("xpsr");
 119:C:\DAVE-3.1.10\eclipse\/../CMSIS/Include\core_cmFunc.h ****   return(__regXPSR);
 120:C:\DAVE-3.1.10\eclipse\/../CMSIS/Include\core_cmFunc.h **** }
 121:C:\DAVE-3.1.10\eclipse\/../CMSIS/Include\core_cmFunc.h **** 
 122:C:\DAVE-3.1.10\eclipse\/../CMSIS/Include\core_cmFunc.h **** 
 123:C:\DAVE-3.1.10\eclipse\/../CMSIS/Include\core_cmFunc.h **** /** \brief  Get Process Stack Pointer
 124:C:\DAVE-3.1.10\eclipse\/../CMSIS/Include\core_cmFunc.h **** 
 125:C:\DAVE-3.1.10\eclipse\/../CMSIS/Include\core_cmFunc.h ****     This function returns the current value of the Process Stack Pointer (PSP).
 126:C:\DAVE-3.1.10\eclipse\/../CMSIS/Include\core_cmFunc.h **** 
 127:C:\DAVE-3.1.10\eclipse\/../CMSIS/Include\core_cmFunc.h ****     \return               PSP Register value
 128:C:\DAVE-3.1.10\eclipse\/../CMSIS/Include\core_cmFunc.h ****  */
 129:C:\DAVE-3.1.10\eclipse\/../CMSIS/Include\core_cmFunc.h **** __STATIC_INLINE uint32_t __get_PSP(void)
 130:C:\DAVE-3.1.10\eclipse\/../CMSIS/Include\core_cmFunc.h **** {
 131:C:\DAVE-3.1.10\eclipse\/../CMSIS/Include\core_cmFunc.h ****   register uint32_t __regProcessStackPointer  __ASM("psp");
 132:C:\DAVE-3.1.10\eclipse\/../CMSIS/Include\core_cmFunc.h ****   return(__regProcessStackPointer);
 133:C:\DAVE-3.1.10\eclipse\/../CMSIS/Include\core_cmFunc.h **** }
 134:C:\DAVE-3.1.10\eclipse\/../CMSIS/Include\core_cmFunc.h **** 
 135:C:\DAVE-3.1.10\eclipse\/../CMSIS/Include\core_cmFunc.h **** 
 136:C:\DAVE-3.1.10\eclipse\/../CMSIS/Include\core_cmFunc.h **** /** \brief  Set Process Stack Pointer
 137:C:\DAVE-3.1.10\eclipse\/../CMSIS/Include\core_cmFunc.h **** 
 138:C:\DAVE-3.1.10\eclipse\/../CMSIS/Include\core_cmFunc.h ****     This function assigns the given value to the Process Stack Pointer (PSP).
 139:C:\DAVE-3.1.10\eclipse\/../CMSIS/Include\core_cmFunc.h **** 
 140:C:\DAVE-3.1.10\eclipse\/../CMSIS/Include\core_cmFunc.h ****     \param [in]    topOfProcStack  Process Stack Pointer value to set
 141:C:\DAVE-3.1.10\eclipse\/../CMSIS/Include\core_cmFunc.h ****  */
 142:C:\DAVE-3.1.10\eclipse\/../CMSIS/Include\core_cmFunc.h **** __STATIC_INLINE void __set_PSP(uint32_t topOfProcStack)
 143:C:\DAVE-3.1.10\eclipse\/../CMSIS/Include\core_cmFunc.h **** {
 144:C:\DAVE-3.1.10\eclipse\/../CMSIS/Include\core_cmFunc.h ****   register uint32_t __regProcessStackPointer  __ASM("psp");
 145:C:\DAVE-3.1.10\eclipse\/../CMSIS/Include\core_cmFunc.h ****   __regProcessStackPointer = topOfProcStack;
 146:C:\DAVE-3.1.10\eclipse\/../CMSIS/Include\core_cmFunc.h **** }
 147:C:\DAVE-3.1.10\eclipse\/../CMSIS/Include\core_cmFunc.h **** 
 148:C:\DAVE-3.1.10\eclipse\/../CMSIS/Include\core_cmFunc.h **** 
 149:C:\DAVE-3.1.10\eclipse\/../CMSIS/Include\core_cmFunc.h **** /** \brief  Get Main Stack Pointer
 150:C:\DAVE-3.1.10\eclipse\/../CMSIS/Include\core_cmFunc.h **** 
 151:C:\DAVE-3.1.10\eclipse\/../CMSIS/Include\core_cmFunc.h ****     This function returns the current value of the Main Stack Pointer (MSP).
 152:C:\DAVE-3.1.10\eclipse\/../CMSIS/Include\core_cmFunc.h **** 
 153:C:\DAVE-3.1.10\eclipse\/../CMSIS/Include\core_cmFunc.h ****     \return               MSP Register value
 154:C:\DAVE-3.1.10\eclipse\/../CMSIS/Include\core_cmFunc.h ****  */
 155:C:\DAVE-3.1.10\eclipse\/../CMSIS/Include\core_cmFunc.h **** __STATIC_INLINE uint32_t __get_MSP(void)
 156:C:\DAVE-3.1.10\eclipse\/../CMSIS/Include\core_cmFunc.h **** {
 157:C:\DAVE-3.1.10\eclipse\/../CMSIS/Include\core_cmFunc.h ****   register uint32_t __regMainStackPointer     __ASM("msp");
 158:C:\DAVE-3.1.10\eclipse\/../CMSIS/Include\core_cmFunc.h ****   return(__regMainStackPointer);
 159:C:\DAVE-3.1.10\eclipse\/../CMSIS/Include\core_cmFunc.h **** }
 160:C:\DAVE-3.1.10\eclipse\/../CMSIS/Include\core_cmFunc.h **** 
 161:C:\DAVE-3.1.10\eclipse\/../CMSIS/Include\core_cmFunc.h **** 
 162:C:\DAVE-3.1.10\eclipse\/../CMSIS/Include\core_cmFunc.h **** /** \brief  Set Main Stack Pointer
 163:C:\DAVE-3.1.10\eclipse\/../CMSIS/Include\core_cmFunc.h **** 
 164:C:\DAVE-3.1.10\eclipse\/../CMSIS/Include\core_cmFunc.h ****     This function assigns the given value to the Main Stack Pointer (MSP).
 165:C:\DAVE-3.1.10\eclipse\/../CMSIS/Include\core_cmFunc.h **** 
 166:C:\DAVE-3.1.10\eclipse\/../CMSIS/Include\core_cmFunc.h ****     \param [in]    topOfMainStack  Main Stack Pointer value to set
 167:C:\DAVE-3.1.10\eclipse\/../CMSIS/Include\core_cmFunc.h ****  */
 168:C:\DAVE-3.1.10\eclipse\/../CMSIS/Include\core_cmFunc.h **** __STATIC_INLINE void __set_MSP(uint32_t topOfMainStack)
 169:C:\DAVE-3.1.10\eclipse\/../CMSIS/Include\core_cmFunc.h **** {
 170:C:\DAVE-3.1.10\eclipse\/../CMSIS/Include\core_cmFunc.h ****   register uint32_t __regMainStackPointer     __ASM("msp");
 171:C:\DAVE-3.1.10\eclipse\/../CMSIS/Include\core_cmFunc.h ****   __regMainStackPointer = topOfMainStack;
 172:C:\DAVE-3.1.10\eclipse\/../CMSIS/Include\core_cmFunc.h **** }
 173:C:\DAVE-3.1.10\eclipse\/../CMSIS/Include\core_cmFunc.h **** 
 174:C:\DAVE-3.1.10\eclipse\/../CMSIS/Include\core_cmFunc.h **** 
 175:C:\DAVE-3.1.10\eclipse\/../CMSIS/Include\core_cmFunc.h **** /** \brief  Get Priority Mask
 176:C:\DAVE-3.1.10\eclipse\/../CMSIS/Include\core_cmFunc.h **** 
 177:C:\DAVE-3.1.10\eclipse\/../CMSIS/Include\core_cmFunc.h ****     This function returns the current state of the priority mask bit from the Priority Mask Registe
 178:C:\DAVE-3.1.10\eclipse\/../CMSIS/Include\core_cmFunc.h **** 
 179:C:\DAVE-3.1.10\eclipse\/../CMSIS/Include\core_cmFunc.h ****     \return               Priority Mask value
 180:C:\DAVE-3.1.10\eclipse\/../CMSIS/Include\core_cmFunc.h ****  */
 181:C:\DAVE-3.1.10\eclipse\/../CMSIS/Include\core_cmFunc.h **** __STATIC_INLINE uint32_t __get_PRIMASK(void)
 182:C:\DAVE-3.1.10\eclipse\/../CMSIS/Include\core_cmFunc.h **** {
 183:C:\DAVE-3.1.10\eclipse\/../CMSIS/Include\core_cmFunc.h ****   register uint32_t __regPriMask         __ASM("primask");
 184:C:\DAVE-3.1.10\eclipse\/../CMSIS/Include\core_cmFunc.h ****   return(__regPriMask);
 185:C:\DAVE-3.1.10\eclipse\/../CMSIS/Include\core_cmFunc.h **** }
 186:C:\DAVE-3.1.10\eclipse\/../CMSIS/Include\core_cmFunc.h **** 
 187:C:\DAVE-3.1.10\eclipse\/../CMSIS/Include\core_cmFunc.h **** 
 188:C:\DAVE-3.1.10\eclipse\/../CMSIS/Include\core_cmFunc.h **** /** \brief  Set Priority Mask
 189:C:\DAVE-3.1.10\eclipse\/../CMSIS/Include\core_cmFunc.h **** 
 190:C:\DAVE-3.1.10\eclipse\/../CMSIS/Include\core_cmFunc.h ****     This function assigns the given value to the Priority Mask Register.
 191:C:\DAVE-3.1.10\eclipse\/../CMSIS/Include\core_cmFunc.h **** 
 192:C:\DAVE-3.1.10\eclipse\/../CMSIS/Include\core_cmFunc.h ****     \param [in]    priMask  Priority Mask
 193:C:\DAVE-3.1.10\eclipse\/../CMSIS/Include\core_cmFunc.h ****  */
 194:C:\DAVE-3.1.10\eclipse\/../CMSIS/Include\core_cmFunc.h **** __STATIC_INLINE void __set_PRIMASK(uint32_t priMask)
 195:C:\DAVE-3.1.10\eclipse\/../CMSIS/Include\core_cmFunc.h **** {
 196:C:\DAVE-3.1.10\eclipse\/../CMSIS/Include\core_cmFunc.h ****   register uint32_t __regPriMask         __ASM("primask");
 197:C:\DAVE-3.1.10\eclipse\/../CMSIS/Include\core_cmFunc.h ****   __regPriMask = (priMask);
 198:C:\DAVE-3.1.10\eclipse\/../CMSIS/Include\core_cmFunc.h **** }
 199:C:\DAVE-3.1.10\eclipse\/../CMSIS/Include\core_cmFunc.h **** 
 200:C:\DAVE-3.1.10\eclipse\/../CMSIS/Include\core_cmFunc.h **** 
 201:C:\DAVE-3.1.10\eclipse\/../CMSIS/Include\core_cmFunc.h **** #if       (__CORTEX_M >= 0x03)
 202:C:\DAVE-3.1.10\eclipse\/../CMSIS/Include\core_cmFunc.h **** 
 203:C:\DAVE-3.1.10\eclipse\/../CMSIS/Include\core_cmFunc.h **** /** \brief  Enable FIQ
 204:C:\DAVE-3.1.10\eclipse\/../CMSIS/Include\core_cmFunc.h **** 
 205:C:\DAVE-3.1.10\eclipse\/../CMSIS/Include\core_cmFunc.h ****     This function enables FIQ interrupts by clearing the F-bit in the CPSR.
 206:C:\DAVE-3.1.10\eclipse\/../CMSIS/Include\core_cmFunc.h ****     Can only be executed in Privileged modes.
 207:C:\DAVE-3.1.10\eclipse\/../CMSIS/Include\core_cmFunc.h ****  */
 208:C:\DAVE-3.1.10\eclipse\/../CMSIS/Include\core_cmFunc.h **** #define __enable_fault_irq                __enable_fiq
 209:C:\DAVE-3.1.10\eclipse\/../CMSIS/Include\core_cmFunc.h **** 
 210:C:\DAVE-3.1.10\eclipse\/../CMSIS/Include\core_cmFunc.h **** 
 211:C:\DAVE-3.1.10\eclipse\/../CMSIS/Include\core_cmFunc.h **** /** \brief  Disable FIQ
 212:C:\DAVE-3.1.10\eclipse\/../CMSIS/Include\core_cmFunc.h **** 
 213:C:\DAVE-3.1.10\eclipse\/../CMSIS/Include\core_cmFunc.h ****     This function disables FIQ interrupts by setting the F-bit in the CPSR.
 214:C:\DAVE-3.1.10\eclipse\/../CMSIS/Include\core_cmFunc.h ****     Can only be executed in Privileged modes.
 215:C:\DAVE-3.1.10\eclipse\/../CMSIS/Include\core_cmFunc.h ****  */
 216:C:\DAVE-3.1.10\eclipse\/../CMSIS/Include\core_cmFunc.h **** #define __disable_fault_irq               __disable_fiq
 217:C:\DAVE-3.1.10\eclipse\/../CMSIS/Include\core_cmFunc.h **** 
 218:C:\DAVE-3.1.10\eclipse\/../CMSIS/Include\core_cmFunc.h **** 
 219:C:\DAVE-3.1.10\eclipse\/../CMSIS/Include\core_cmFunc.h **** /** \brief  Get Base Priority
 220:C:\DAVE-3.1.10\eclipse\/../CMSIS/Include\core_cmFunc.h **** 
 221:C:\DAVE-3.1.10\eclipse\/../CMSIS/Include\core_cmFunc.h ****     This function returns the current value of the Base Priority register.
 222:C:\DAVE-3.1.10\eclipse\/../CMSIS/Include\core_cmFunc.h **** 
 223:C:\DAVE-3.1.10\eclipse\/../CMSIS/Include\core_cmFunc.h ****     \return               Base Priority register value
 224:C:\DAVE-3.1.10\eclipse\/../CMSIS/Include\core_cmFunc.h ****  */
 225:C:\DAVE-3.1.10\eclipse\/../CMSIS/Include\core_cmFunc.h **** __STATIC_INLINE uint32_t  __get_BASEPRI(void)
 226:C:\DAVE-3.1.10\eclipse\/../CMSIS/Include\core_cmFunc.h **** {
 227:C:\DAVE-3.1.10\eclipse\/../CMSIS/Include\core_cmFunc.h ****   register uint32_t __regBasePri         __ASM("basepri");
 228:C:\DAVE-3.1.10\eclipse\/../CMSIS/Include\core_cmFunc.h ****   return(__regBasePri);
 229:C:\DAVE-3.1.10\eclipse\/../CMSIS/Include\core_cmFunc.h **** }
 230:C:\DAVE-3.1.10\eclipse\/../CMSIS/Include\core_cmFunc.h **** 
 231:C:\DAVE-3.1.10\eclipse\/../CMSIS/Include\core_cmFunc.h **** 
 232:C:\DAVE-3.1.10\eclipse\/../CMSIS/Include\core_cmFunc.h **** /** \brief  Set Base Priority
 233:C:\DAVE-3.1.10\eclipse\/../CMSIS/Include\core_cmFunc.h **** 
 234:C:\DAVE-3.1.10\eclipse\/../CMSIS/Include\core_cmFunc.h ****     This function assigns the given value to the Base Priority register.
 235:C:\DAVE-3.1.10\eclipse\/../CMSIS/Include\core_cmFunc.h **** 
 236:C:\DAVE-3.1.10\eclipse\/../CMSIS/Include\core_cmFunc.h ****     \param [in]    basePri  Base Priority value to set
 237:C:\DAVE-3.1.10\eclipse\/../CMSIS/Include\core_cmFunc.h ****  */
 238:C:\DAVE-3.1.10\eclipse\/../CMSIS/Include\core_cmFunc.h **** __STATIC_INLINE void __set_BASEPRI(uint32_t basePri)
 239:C:\DAVE-3.1.10\eclipse\/../CMSIS/Include\core_cmFunc.h **** {
 240:C:\DAVE-3.1.10\eclipse\/../CMSIS/Include\core_cmFunc.h ****   register uint32_t __regBasePri         __ASM("basepri");
 241:C:\DAVE-3.1.10\eclipse\/../CMSIS/Include\core_cmFunc.h ****   __regBasePri = (basePri & 0xff);
 242:C:\DAVE-3.1.10\eclipse\/../CMSIS/Include\core_cmFunc.h **** }
 243:C:\DAVE-3.1.10\eclipse\/../CMSIS/Include\core_cmFunc.h **** 
 244:C:\DAVE-3.1.10\eclipse\/../CMSIS/Include\core_cmFunc.h **** 
 245:C:\DAVE-3.1.10\eclipse\/../CMSIS/Include\core_cmFunc.h **** /** \brief  Get Fault Mask
 246:C:\DAVE-3.1.10\eclipse\/../CMSIS/Include\core_cmFunc.h **** 
 247:C:\DAVE-3.1.10\eclipse\/../CMSIS/Include\core_cmFunc.h ****     This function returns the current value of the Fault Mask register.
 248:C:\DAVE-3.1.10\eclipse\/../CMSIS/Include\core_cmFunc.h **** 
 249:C:\DAVE-3.1.10\eclipse\/../CMSIS/Include\core_cmFunc.h ****     \return               Fault Mask register value
 250:C:\DAVE-3.1.10\eclipse\/../CMSIS/Include\core_cmFunc.h ****  */
 251:C:\DAVE-3.1.10\eclipse\/../CMSIS/Include\core_cmFunc.h **** __STATIC_INLINE uint32_t __get_FAULTMASK(void)
 252:C:\DAVE-3.1.10\eclipse\/../CMSIS/Include\core_cmFunc.h **** {
 253:C:\DAVE-3.1.10\eclipse\/../CMSIS/Include\core_cmFunc.h ****   register uint32_t __regFaultMask       __ASM("faultmask");
 254:C:\DAVE-3.1.10\eclipse\/../CMSIS/Include\core_cmFunc.h ****   return(__regFaultMask);
 255:C:\DAVE-3.1.10\eclipse\/../CMSIS/Include\core_cmFunc.h **** }
 256:C:\DAVE-3.1.10\eclipse\/../CMSIS/Include\core_cmFunc.h **** 
 257:C:\DAVE-3.1.10\eclipse\/../CMSIS/Include\core_cmFunc.h **** 
 258:C:\DAVE-3.1.10\eclipse\/../CMSIS/Include\core_cmFunc.h **** /** \brief  Set Fault Mask
 259:C:\DAVE-3.1.10\eclipse\/../CMSIS/Include\core_cmFunc.h **** 
 260:C:\DAVE-3.1.10\eclipse\/../CMSIS/Include\core_cmFunc.h ****     This function assigns the given value to the Fault Mask register.
 261:C:\DAVE-3.1.10\eclipse\/../CMSIS/Include\core_cmFunc.h **** 
 262:C:\DAVE-3.1.10\eclipse\/../CMSIS/Include\core_cmFunc.h ****     \param [in]    faultMask  Fault Mask value to set
 263:C:\DAVE-3.1.10\eclipse\/../CMSIS/Include\core_cmFunc.h ****  */
 264:C:\DAVE-3.1.10\eclipse\/../CMSIS/Include\core_cmFunc.h **** __STATIC_INLINE void __set_FAULTMASK(uint32_t faultMask)
 265:C:\DAVE-3.1.10\eclipse\/../CMSIS/Include\core_cmFunc.h **** {
 266:C:\DAVE-3.1.10\eclipse\/../CMSIS/Include\core_cmFunc.h ****   register uint32_t __regFaultMask       __ASM("faultmask");
 267:C:\DAVE-3.1.10\eclipse\/../CMSIS/Include\core_cmFunc.h ****   __regFaultMask = (faultMask & (uint32_t)1);
 268:C:\DAVE-3.1.10\eclipse\/../CMSIS/Include\core_cmFunc.h **** }
 269:C:\DAVE-3.1.10\eclipse\/../CMSIS/Include\core_cmFunc.h **** 
 270:C:\DAVE-3.1.10\eclipse\/../CMSIS/Include\core_cmFunc.h **** #endif /* (__CORTEX_M >= 0x03) */
 271:C:\DAVE-3.1.10\eclipse\/../CMSIS/Include\core_cmFunc.h **** 
 272:C:\DAVE-3.1.10\eclipse\/../CMSIS/Include\core_cmFunc.h **** 
 273:C:\DAVE-3.1.10\eclipse\/../CMSIS/Include\core_cmFunc.h **** #if       (__CORTEX_M == 0x04)
 274:C:\DAVE-3.1.10\eclipse\/../CMSIS/Include\core_cmFunc.h **** 
 275:C:\DAVE-3.1.10\eclipse\/../CMSIS/Include\core_cmFunc.h **** /** \brief  Get FPSCR
 276:C:\DAVE-3.1.10\eclipse\/../CMSIS/Include\core_cmFunc.h **** 
 277:C:\DAVE-3.1.10\eclipse\/../CMSIS/Include\core_cmFunc.h ****     This function returns the current value of the Floating Point Status/Control register.
 278:C:\DAVE-3.1.10\eclipse\/../CMSIS/Include\core_cmFunc.h **** 
 279:C:\DAVE-3.1.10\eclipse\/../CMSIS/Include\core_cmFunc.h ****     \return               Floating Point Status/Control register value
 280:C:\DAVE-3.1.10\eclipse\/../CMSIS/Include\core_cmFunc.h ****  */
 281:C:\DAVE-3.1.10\eclipse\/../CMSIS/Include\core_cmFunc.h **** __STATIC_INLINE uint32_t __get_FPSCR(void)
 282:C:\DAVE-3.1.10\eclipse\/../CMSIS/Include\core_cmFunc.h **** {
 283:C:\DAVE-3.1.10\eclipse\/../CMSIS/Include\core_cmFunc.h **** #if (__FPU_PRESENT == 1) && (__FPU_USED == 1)
 284:C:\DAVE-3.1.10\eclipse\/../CMSIS/Include\core_cmFunc.h ****   register uint32_t __regfpscr         __ASM("fpscr");
 285:C:\DAVE-3.1.10\eclipse\/../CMSIS/Include\core_cmFunc.h ****   return(__regfpscr);
 286:C:\DAVE-3.1.10\eclipse\/../CMSIS/Include\core_cmFunc.h **** #else
 287:C:\DAVE-3.1.10\eclipse\/../CMSIS/Include\core_cmFunc.h ****    return(0);
 288:C:\DAVE-3.1.10\eclipse\/../CMSIS/Include\core_cmFunc.h **** #endif
 289:C:\DAVE-3.1.10\eclipse\/../CMSIS/Include\core_cmFunc.h **** }
 290:C:\DAVE-3.1.10\eclipse\/../CMSIS/Include\core_cmFunc.h **** 
 291:C:\DAVE-3.1.10\eclipse\/../CMSIS/Include\core_cmFunc.h **** 
 292:C:\DAVE-3.1.10\eclipse\/../CMSIS/Include\core_cmFunc.h **** /** \brief  Set FPSCR
 293:C:\DAVE-3.1.10\eclipse\/../CMSIS/Include\core_cmFunc.h **** 
 294:C:\DAVE-3.1.10\eclipse\/../CMSIS/Include\core_cmFunc.h ****     This function assigns the given value to the Floating Point Status/Control register.
 295:C:\DAVE-3.1.10\eclipse\/../CMSIS/Include\core_cmFunc.h **** 
 296:C:\DAVE-3.1.10\eclipse\/../CMSIS/Include\core_cmFunc.h ****     \param [in]    fpscr  Floating Point Status/Control value to set
 297:C:\DAVE-3.1.10\eclipse\/../CMSIS/Include\core_cmFunc.h ****  */
 298:C:\DAVE-3.1.10\eclipse\/../CMSIS/Include\core_cmFunc.h **** __STATIC_INLINE void __set_FPSCR(uint32_t fpscr)
 299:C:\DAVE-3.1.10\eclipse\/../CMSIS/Include\core_cmFunc.h **** {
 300:C:\DAVE-3.1.10\eclipse\/../CMSIS/Include\core_cmFunc.h **** #if (__FPU_PRESENT == 1) && (__FPU_USED == 1)
 301:C:\DAVE-3.1.10\eclipse\/../CMSIS/Include\core_cmFunc.h ****   register uint32_t __regfpscr         __ASM("fpscr");
 302:C:\DAVE-3.1.10\eclipse\/../CMSIS/Include\core_cmFunc.h ****   __regfpscr = (fpscr);
 303:C:\DAVE-3.1.10\eclipse\/../CMSIS/Include\core_cmFunc.h **** #endif
 304:C:\DAVE-3.1.10\eclipse\/../CMSIS/Include\core_cmFunc.h **** }
 305:C:\DAVE-3.1.10\eclipse\/../CMSIS/Include\core_cmFunc.h **** 
 306:C:\DAVE-3.1.10\eclipse\/../CMSIS/Include\core_cmFunc.h **** #endif /* (__CORTEX_M == 0x04) */
 307:C:\DAVE-3.1.10\eclipse\/../CMSIS/Include\core_cmFunc.h **** 
 308:C:\DAVE-3.1.10\eclipse\/../CMSIS/Include\core_cmFunc.h **** 
 309:C:\DAVE-3.1.10\eclipse\/../CMSIS/Include\core_cmFunc.h **** #elif defined ( __ICCARM__ ) /*------------------ ICC Compiler -------------------*/
 310:C:\DAVE-3.1.10\eclipse\/../CMSIS/Include\core_cmFunc.h **** /* IAR iccarm specific functions */
 311:C:\DAVE-3.1.10\eclipse\/../CMSIS/Include\core_cmFunc.h **** 
 312:C:\DAVE-3.1.10\eclipse\/../CMSIS/Include\core_cmFunc.h **** #include <cmsis_iar.h>
 313:C:\DAVE-3.1.10\eclipse\/../CMSIS/Include\core_cmFunc.h **** 
 314:C:\DAVE-3.1.10\eclipse\/../CMSIS/Include\core_cmFunc.h **** 
 315:C:\DAVE-3.1.10\eclipse\/../CMSIS/Include\core_cmFunc.h **** #elif defined ( __TMS470__ ) /*---------------- TI CCS Compiler ------------------*/
 316:C:\DAVE-3.1.10\eclipse\/../CMSIS/Include\core_cmFunc.h **** /* TI CCS specific functions */
 317:C:\DAVE-3.1.10\eclipse\/../CMSIS/Include\core_cmFunc.h **** 
 318:C:\DAVE-3.1.10\eclipse\/../CMSIS/Include\core_cmFunc.h **** #include <cmsis_ccs.h>
 319:C:\DAVE-3.1.10\eclipse\/../CMSIS/Include\core_cmFunc.h **** 
 320:C:\DAVE-3.1.10\eclipse\/../CMSIS/Include\core_cmFunc.h **** 
 321:C:\DAVE-3.1.10\eclipse\/../CMSIS/Include\core_cmFunc.h **** #elif defined ( __GNUC__ ) /*------------------ GNU Compiler ---------------------*/
 322:C:\DAVE-3.1.10\eclipse\/../CMSIS/Include\core_cmFunc.h **** /* GNU gcc specific functions */
 323:C:\DAVE-3.1.10\eclipse\/../CMSIS/Include\core_cmFunc.h **** 
 324:C:\DAVE-3.1.10\eclipse\/../CMSIS/Include\core_cmFunc.h **** /** \brief  Enable IRQ Interrupts
 325:C:\DAVE-3.1.10\eclipse\/../CMSIS/Include\core_cmFunc.h **** 
 326:C:\DAVE-3.1.10\eclipse\/../CMSIS/Include\core_cmFunc.h ****   This function enables IRQ interrupts by clearing the I-bit in the CPSR.
 327:C:\DAVE-3.1.10\eclipse\/../CMSIS/Include\core_cmFunc.h ****   Can only be executed in Privileged modes.
 328:C:\DAVE-3.1.10\eclipse\/../CMSIS/Include\core_cmFunc.h ****  */
 329:C:\DAVE-3.1.10\eclipse\/../CMSIS/Include\core_cmFunc.h **** __attribute__( ( always_inline ) ) __STATIC_INLINE void __enable_irq(void)
 330:C:\DAVE-3.1.10\eclipse\/../CMSIS/Include\core_cmFunc.h **** {
 331:C:\DAVE-3.1.10\eclipse\/../CMSIS/Include\core_cmFunc.h ****   __ASM volatile ("cpsie i" : : : "memory");
 332:C:\DAVE-3.1.10\eclipse\/../CMSIS/Include\core_cmFunc.h **** }
 333:C:\DAVE-3.1.10\eclipse\/../CMSIS/Include\core_cmFunc.h **** 
 334:C:\DAVE-3.1.10\eclipse\/../CMSIS/Include\core_cmFunc.h **** 
 335:C:\DAVE-3.1.10\eclipse\/../CMSIS/Include\core_cmFunc.h **** /** \brief  Disable IRQ Interrupts
 336:C:\DAVE-3.1.10\eclipse\/../CMSIS/Include\core_cmFunc.h **** 
 337:C:\DAVE-3.1.10\eclipse\/../CMSIS/Include\core_cmFunc.h ****   This function disables IRQ interrupts by setting the I-bit in the CPSR.
 338:C:\DAVE-3.1.10\eclipse\/../CMSIS/Include\core_cmFunc.h ****   Can only be executed in Privileged modes.
 339:C:\DAVE-3.1.10\eclipse\/../CMSIS/Include\core_cmFunc.h ****  */
 340:C:\DAVE-3.1.10\eclipse\/../CMSIS/Include\core_cmFunc.h **** __attribute__( ( always_inline ) ) __STATIC_INLINE void __disable_irq(void)
 341:C:\DAVE-3.1.10\eclipse\/../CMSIS/Include\core_cmFunc.h **** {
 342:C:\DAVE-3.1.10\eclipse\/../CMSIS/Include\core_cmFunc.h ****   __ASM volatile ("cpsid i" : : : "memory");
 343:C:\DAVE-3.1.10\eclipse\/../CMSIS/Include\core_cmFunc.h **** }
 344:C:\DAVE-3.1.10\eclipse\/../CMSIS/Include\core_cmFunc.h **** 
 345:C:\DAVE-3.1.10\eclipse\/../CMSIS/Include\core_cmFunc.h **** 
 346:C:\DAVE-3.1.10\eclipse\/../CMSIS/Include\core_cmFunc.h **** /** \brief  Get Control Register
 347:C:\DAVE-3.1.10\eclipse\/../CMSIS/Include\core_cmFunc.h **** 
 348:C:\DAVE-3.1.10\eclipse\/../CMSIS/Include\core_cmFunc.h ****     This function returns the content of the Control Register.
 349:C:\DAVE-3.1.10\eclipse\/../CMSIS/Include\core_cmFunc.h **** 
 350:C:\DAVE-3.1.10\eclipse\/../CMSIS/Include\core_cmFunc.h ****     \return               Control Register value
 351:C:\DAVE-3.1.10\eclipse\/../CMSIS/Include\core_cmFunc.h ****  */
 352:C:\DAVE-3.1.10\eclipse\/../CMSIS/Include\core_cmFunc.h **** __attribute__( ( always_inline ) ) __STATIC_INLINE uint32_t __get_CONTROL(void)
 353:C:\DAVE-3.1.10\eclipse\/../CMSIS/Include\core_cmFunc.h **** {
 354:C:\DAVE-3.1.10\eclipse\/../CMSIS/Include\core_cmFunc.h ****   uint32_t result;
 355:C:\DAVE-3.1.10\eclipse\/../CMSIS/Include\core_cmFunc.h **** 
 356:C:\DAVE-3.1.10\eclipse\/../CMSIS/Include\core_cmFunc.h ****   __ASM volatile ("MRS %0, control" : "=r" (result) );
 357:C:\DAVE-3.1.10\eclipse\/../CMSIS/Include\core_cmFunc.h ****   return(result);
 358:C:\DAVE-3.1.10\eclipse\/../CMSIS/Include\core_cmFunc.h **** }
 359:C:\DAVE-3.1.10\eclipse\/../CMSIS/Include\core_cmFunc.h **** 
 360:C:\DAVE-3.1.10\eclipse\/../CMSIS/Include\core_cmFunc.h **** 
 361:C:\DAVE-3.1.10\eclipse\/../CMSIS/Include\core_cmFunc.h **** /** \brief  Set Control Register
 362:C:\DAVE-3.1.10\eclipse\/../CMSIS/Include\core_cmFunc.h **** 
 363:C:\DAVE-3.1.10\eclipse\/../CMSIS/Include\core_cmFunc.h ****     This function writes the given value to the Control Register.
 364:C:\DAVE-3.1.10\eclipse\/../CMSIS/Include\core_cmFunc.h **** 
 365:C:\DAVE-3.1.10\eclipse\/../CMSIS/Include\core_cmFunc.h ****     \param [in]    control  Control Register value to set
 366:C:\DAVE-3.1.10\eclipse\/../CMSIS/Include\core_cmFunc.h ****  */
 367:C:\DAVE-3.1.10\eclipse\/../CMSIS/Include\core_cmFunc.h **** __attribute__( ( always_inline ) ) __STATIC_INLINE void __set_CONTROL(uint32_t control)
 368:C:\DAVE-3.1.10\eclipse\/../CMSIS/Include\core_cmFunc.h **** {
 369:C:\DAVE-3.1.10\eclipse\/../CMSIS/Include\core_cmFunc.h ****   __ASM volatile ("MSR control, %0" : : "r" (control) : "memory");
 370:C:\DAVE-3.1.10\eclipse\/../CMSIS/Include\core_cmFunc.h **** }
 371:C:\DAVE-3.1.10\eclipse\/../CMSIS/Include\core_cmFunc.h **** 
 372:C:\DAVE-3.1.10\eclipse\/../CMSIS/Include\core_cmFunc.h **** 
 373:C:\DAVE-3.1.10\eclipse\/../CMSIS/Include\core_cmFunc.h **** /** \brief  Get IPSR Register
 374:C:\DAVE-3.1.10\eclipse\/../CMSIS/Include\core_cmFunc.h **** 
 375:C:\DAVE-3.1.10\eclipse\/../CMSIS/Include\core_cmFunc.h ****     This function returns the content of the IPSR Register.
 376:C:\DAVE-3.1.10\eclipse\/../CMSIS/Include\core_cmFunc.h **** 
 377:C:\DAVE-3.1.10\eclipse\/../CMSIS/Include\core_cmFunc.h ****     \return               IPSR Register value
 378:C:\DAVE-3.1.10\eclipse\/../CMSIS/Include\core_cmFunc.h ****  */
 379:C:\DAVE-3.1.10\eclipse\/../CMSIS/Include\core_cmFunc.h **** __attribute__( ( always_inline ) ) __STATIC_INLINE uint32_t __get_IPSR(void)
 380:C:\DAVE-3.1.10\eclipse\/../CMSIS/Include\core_cmFunc.h **** {
 381:C:\DAVE-3.1.10\eclipse\/../CMSIS/Include\core_cmFunc.h ****   uint32_t result;
 382:C:\DAVE-3.1.10\eclipse\/../CMSIS/Include\core_cmFunc.h **** 
 383:C:\DAVE-3.1.10\eclipse\/../CMSIS/Include\core_cmFunc.h ****   __ASM volatile ("MRS %0, ipsr" : "=r" (result) );
 384:C:\DAVE-3.1.10\eclipse\/../CMSIS/Include\core_cmFunc.h ****   return(result);
 385:C:\DAVE-3.1.10\eclipse\/../CMSIS/Include\core_cmFunc.h **** }
 386:C:\DAVE-3.1.10\eclipse\/../CMSIS/Include\core_cmFunc.h **** 
 387:C:\DAVE-3.1.10\eclipse\/../CMSIS/Include\core_cmFunc.h **** 
 388:C:\DAVE-3.1.10\eclipse\/../CMSIS/Include\core_cmFunc.h **** /** \brief  Get APSR Register
 389:C:\DAVE-3.1.10\eclipse\/../CMSIS/Include\core_cmFunc.h **** 
 390:C:\DAVE-3.1.10\eclipse\/../CMSIS/Include\core_cmFunc.h ****     This function returns the content of the APSR Register.
 391:C:\DAVE-3.1.10\eclipse\/../CMSIS/Include\core_cmFunc.h **** 
 392:C:\DAVE-3.1.10\eclipse\/../CMSIS/Include\core_cmFunc.h ****     \return               APSR Register value
 393:C:\DAVE-3.1.10\eclipse\/../CMSIS/Include\core_cmFunc.h ****  */
 394:C:\DAVE-3.1.10\eclipse\/../CMSIS/Include\core_cmFunc.h **** __attribute__( ( always_inline ) ) __STATIC_INLINE uint32_t __get_APSR(void)
 395:C:\DAVE-3.1.10\eclipse\/../CMSIS/Include\core_cmFunc.h **** {
 396:C:\DAVE-3.1.10\eclipse\/../CMSIS/Include\core_cmFunc.h ****   uint32_t result;
 397:C:\DAVE-3.1.10\eclipse\/../CMSIS/Include\core_cmFunc.h **** 
 398:C:\DAVE-3.1.10\eclipse\/../CMSIS/Include\core_cmFunc.h ****   __ASM volatile ("MRS %0, apsr" : "=r" (result) );
 399:C:\DAVE-3.1.10\eclipse\/../CMSIS/Include\core_cmFunc.h ****   return(result);
 400:C:\DAVE-3.1.10\eclipse\/../CMSIS/Include\core_cmFunc.h **** }
 401:C:\DAVE-3.1.10\eclipse\/../CMSIS/Include\core_cmFunc.h **** 
 402:C:\DAVE-3.1.10\eclipse\/../CMSIS/Include\core_cmFunc.h **** 
 403:C:\DAVE-3.1.10\eclipse\/../CMSIS/Include\core_cmFunc.h **** /** \brief  Get xPSR Register
 404:C:\DAVE-3.1.10\eclipse\/../CMSIS/Include\core_cmFunc.h **** 
 405:C:\DAVE-3.1.10\eclipse\/../CMSIS/Include\core_cmFunc.h ****     This function returns the content of the xPSR Register.
 406:C:\DAVE-3.1.10\eclipse\/../CMSIS/Include\core_cmFunc.h **** 
 407:C:\DAVE-3.1.10\eclipse\/../CMSIS/Include\core_cmFunc.h ****     \return               xPSR Register value
 408:C:\DAVE-3.1.10\eclipse\/../CMSIS/Include\core_cmFunc.h ****  */
 409:C:\DAVE-3.1.10\eclipse\/../CMSIS/Include\core_cmFunc.h **** __attribute__( ( always_inline ) ) __STATIC_INLINE uint32_t __get_xPSR(void)
 410:C:\DAVE-3.1.10\eclipse\/../CMSIS/Include\core_cmFunc.h **** {
 411:C:\DAVE-3.1.10\eclipse\/../CMSIS/Include\core_cmFunc.h ****   uint32_t result;
 412:C:\DAVE-3.1.10\eclipse\/../CMSIS/Include\core_cmFunc.h **** 
 413:C:\DAVE-3.1.10\eclipse\/../CMSIS/Include\core_cmFunc.h ****   __ASM volatile ("MRS %0, xpsr" : "=r" (result) );
 414:C:\DAVE-3.1.10\eclipse\/../CMSIS/Include\core_cmFunc.h ****   return(result);
 415:C:\DAVE-3.1.10\eclipse\/../CMSIS/Include\core_cmFunc.h **** }
 416:C:\DAVE-3.1.10\eclipse\/../CMSIS/Include\core_cmFunc.h **** 
 417:C:\DAVE-3.1.10\eclipse\/../CMSIS/Include\core_cmFunc.h **** 
 418:C:\DAVE-3.1.10\eclipse\/../CMSIS/Include\core_cmFunc.h **** /** \brief  Get Process Stack Pointer
 419:C:\DAVE-3.1.10\eclipse\/../CMSIS/Include\core_cmFunc.h **** 
 420:C:\DAVE-3.1.10\eclipse\/../CMSIS/Include\core_cmFunc.h ****     This function returns the current value of the Process Stack Pointer (PSP).
 421:C:\DAVE-3.1.10\eclipse\/../CMSIS/Include\core_cmFunc.h **** 
 422:C:\DAVE-3.1.10\eclipse\/../CMSIS/Include\core_cmFunc.h ****     \return               PSP Register value
 423:C:\DAVE-3.1.10\eclipse\/../CMSIS/Include\core_cmFunc.h ****  */
 424:C:\DAVE-3.1.10\eclipse\/../CMSIS/Include\core_cmFunc.h **** __attribute__( ( always_inline ) ) __STATIC_INLINE uint32_t __get_PSP(void)
 425:C:\DAVE-3.1.10\eclipse\/../CMSIS/Include\core_cmFunc.h **** {
 426:C:\DAVE-3.1.10\eclipse\/../CMSIS/Include\core_cmFunc.h ****   register uint32_t result;
 427:C:\DAVE-3.1.10\eclipse\/../CMSIS/Include\core_cmFunc.h **** 
 428:C:\DAVE-3.1.10\eclipse\/../CMSIS/Include\core_cmFunc.h ****   __ASM volatile ("MRS %0, psp\n"  : "=r" (result) );
 429:C:\DAVE-3.1.10\eclipse\/../CMSIS/Include\core_cmFunc.h ****   return(result);
 430:C:\DAVE-3.1.10\eclipse\/../CMSIS/Include\core_cmFunc.h **** }
 431:C:\DAVE-3.1.10\eclipse\/../CMSIS/Include\core_cmFunc.h **** 
 432:C:\DAVE-3.1.10\eclipse\/../CMSIS/Include\core_cmFunc.h **** 
 433:C:\DAVE-3.1.10\eclipse\/../CMSIS/Include\core_cmFunc.h **** /** \brief  Set Process Stack Pointer
 434:C:\DAVE-3.1.10\eclipse\/../CMSIS/Include\core_cmFunc.h **** 
 435:C:\DAVE-3.1.10\eclipse\/../CMSIS/Include\core_cmFunc.h ****     This function assigns the given value to the Process Stack Pointer (PSP).
 436:C:\DAVE-3.1.10\eclipse\/../CMSIS/Include\core_cmFunc.h **** 
 437:C:\DAVE-3.1.10\eclipse\/../CMSIS/Include\core_cmFunc.h ****     \param [in]    topOfProcStack  Process Stack Pointer value to set
 438:C:\DAVE-3.1.10\eclipse\/../CMSIS/Include\core_cmFunc.h ****  */
 439:C:\DAVE-3.1.10\eclipse\/../CMSIS/Include\core_cmFunc.h **** __attribute__( ( always_inline ) ) __STATIC_INLINE void __set_PSP(uint32_t topOfProcStack)
 440:C:\DAVE-3.1.10\eclipse\/../CMSIS/Include\core_cmFunc.h **** {
 441:C:\DAVE-3.1.10\eclipse\/../CMSIS/Include\core_cmFunc.h ****   __ASM volatile ("MSR psp, %0\n" : : "r" (topOfProcStack) : "sp");
 249              		.loc 2 441 0
 250              	@ 441 "C:\DAVE-3.1.10\eclipse\/../CMSIS/Include/core_cmFunc.h" 1
 251 0032 83F30988 		MSR psp, r3
 252              	
 253              	@ 0 "" 2
 254              		.thumb
 255              	.L19:
 256              	.LBE205:
 257              	.LBE204:
 537:../Dave/Generated/src/RTOS001/SRC/rt_CMSIS.c ****   }
 538:../Dave/Generated/src/RTOS001/SRC/rt_CMSIS.c ****   if (os_tsk.new == NULL) {                     // Force context switch
 258              		.loc 1 538 0
 259 0036 40F20003 		movw	r3, #:lower16:os_tsk
 260 003a C0F20003 		movt	r3, #:upper16:os_tsk
 261 003e 5B68     		ldr	r3, [r3, #4]
 262 0040 3BB9     		cbnz	r3, .L20
 539:../Dave/Generated/src/RTOS001/SRC/rt_CMSIS.c ****     os_tsk.new = os_tsk.run;
 263              		.loc 1 539 0
 264 0042 40F20003 		movw	r3, #:lower16:os_tsk
 265 0046 C0F20003 		movt	r3, #:upper16:os_tsk
 266 004a 5A60     		str	r2, [r3, #4]
 540:../Dave/Generated/src/RTOS001/SRC/rt_CMSIS.c ****     os_tsk.run = NULL;
 267              		.loc 1 540 0
 268 004c 4FF00002 		mov	r2, #0
 269 0050 1A60     		str	r2, [r3, #0]
 270              	.L20:
 541:../Dave/Generated/src/RTOS001/SRC/rt_CMSIS.c ****   }
 542:../Dave/Generated/src/RTOS001/SRC/rt_CMSIS.c **** 
 543:../Dave/Generated/src/RTOS001/SRC/rt_CMSIS.c ****   rt_sys_start();
 271              		.loc 1 543 0
 272 0052 FFF7FEFF 		bl	rt_sys_start
 544:../Dave/Generated/src/RTOS001/SRC/rt_CMSIS.c **** 
 545:../Dave/Generated/src/RTOS001/SRC/rt_CMSIS.c ****   os_running = 1;
 273              		.loc 1 545 0
 274 0056 40F20003 		movw	r3, #:lower16:os_running
 275 005a C0F20003 		movt	r3, #:upper16:os_running
 276 005e 4FF00102 		mov	r2, #1
 277 0062 1A70     		strb	r2, [r3, #0]
 278              	.L18:
 546:../Dave/Generated/src/RTOS001/SRC/rt_CMSIS.c **** 
 547:../Dave/Generated/src/RTOS001/SRC/rt_CMSIS.c ****   return osOK;
 548:../Dave/Generated/src/RTOS001/SRC/rt_CMSIS.c **** }
 279              		.loc 1 548 0
 280 0064 4FF00000 		mov	r0, #0
 281 0068 10BD     		pop	{r4, pc}
 282              		.cfi_endproc
 283              	.LFE109:
 285 006a 00BF     		.section	.text.svcKernelRunning,"ax",%progbits
 286              		.align	2
 287              		.global	svcKernelRunning
 288              		.thumb
 289              		.thumb_func
 291              	svcKernelRunning:
 292              	.LFB110:
 549:../Dave/Generated/src/RTOS001/SRC/rt_CMSIS.c **** 
 550:../Dave/Generated/src/RTOS001/SRC/rt_CMSIS.c **** /// Check if the RTOS kernel is already started
 551:../Dave/Generated/src/RTOS001/SRC/rt_CMSIS.c **** int32_t svcKernelRunning (void) {
 293              		.loc 1 551 0
 294              		.cfi_startproc
 295              		@ args = 0, pretend = 0, frame = 0
 296              		@ frame_needed = 0, uses_anonymous_args = 0
 297              		@ link register save eliminated.
 552:../Dave/Generated/src/RTOS001/SRC/rt_CMSIS.c ****   return os_running;
 298              		.loc 1 552 0
 299 0000 40F20003 		movw	r3, #:lower16:os_running
 300 0004 C0F20003 		movt	r3, #:upper16:os_running
 553:../Dave/Generated/src/RTOS001/SRC/rt_CMSIS.c **** }
 301              		.loc 1 553 0
 302 0008 1878     		ldrb	r0, [r3, #0]	@ zero_extendqisi2
 303 000a 7047     		bx	lr
 304              		.cfi_endproc
 305              	.LFE110:
 307              		.section	.text.svcKernelSysTick,"ax",%progbits
 308              		.align	2
 309              		.global	svcKernelSysTick
 310              		.thumb
 311              		.thumb_func
 313              	svcKernelSysTick:
 314              	.LFB111:
 554:../Dave/Generated/src/RTOS001/SRC/rt_CMSIS.c **** 
 555:../Dave/Generated/src/RTOS001/SRC/rt_CMSIS.c **** /// Get the RTOS kernel system timer counter
 556:../Dave/Generated/src/RTOS001/SRC/rt_CMSIS.c **** uint32_t svcKernelSysTick (void) {
 315              		.loc 1 556 0
 316              		.cfi_startproc
 317              		@ args = 0, pretend = 0, frame = 0
 318              		@ frame_needed = 0, uses_anonymous_args = 0
 319 0000 10B5     		push	{r4, lr}
 320              	.LCFI2:
 321              		.cfi_def_cfa_offset 8
 322              		.cfi_offset 4, -8
 323              		.cfi_offset 14, -4
 557:../Dave/Generated/src/RTOS001/SRC/rt_CMSIS.c ****   uint32_t tick, tick0;
 558:../Dave/Generated/src/RTOS001/SRC/rt_CMSIS.c **** 
 559:../Dave/Generated/src/RTOS001/SRC/rt_CMSIS.c ****   tick = os_tick_val();
 324              		.loc 1 559 0
 325 0002 FFF7FEFF 		bl	os_tick_val
 326 0006 0446     		mov	r4, r0
 560:../Dave/Generated/src/RTOS001/SRC/rt_CMSIS.c ****   if (os_tick_ovf()) {
 327              		.loc 1 560 0
 328 0008 FFF7FEFF 		bl	os_tick_ovf
 329 000c A0B1     		cbz	r0, .L23
 561:../Dave/Generated/src/RTOS001/SRC/rt_CMSIS.c ****     tick0 = os_tick_val();
 330              		.loc 1 561 0
 331 000e FFF7FEFF 		bl	os_tick_val
 562:../Dave/Generated/src/RTOS001/SRC/rt_CMSIS.c ****     if (tick0 < tick) tick = tick0;
 563:../Dave/Generated/src/RTOS001/SRC/rt_CMSIS.c ****     tick += (os_trv + 1) * (os_time + 1);
 332              		.loc 1 563 0
 333 0012 40F20003 		movw	r3, #:lower16:os_time
 334 0016 C0F20003 		movt	r3, #:upper16:os_time
 335 001a 1968     		ldr	r1, [r3, #0]
 336 001c 40F20002 		movw	r2, #:lower16:os_trv
 337 0020 C0F20002 		movt	r2, #:upper16:os_trv
 338 0024 1368     		ldr	r3, [r2, #0]
 339 0026 03F10103 		add	r3, r3, #1
 340 002a 01FB0333 		mla	r3, r1, r3, r3
 341 002e A042     		cmp	r0, r4
 342 0030 94BF     		ite	ls
 343 0032 1818     		addls	r0, r3, r0
 344 0034 1819     		addhi	r0, r3, r4
 345 0036 10BD     		pop	{r4, pc}
 346              	.L23:
 564:../Dave/Generated/src/RTOS001/SRC/rt_CMSIS.c ****   } else {
 565:../Dave/Generated/src/RTOS001/SRC/rt_CMSIS.c ****     tick += (os_trv + 1) *  os_time;
 347              		.loc 1 565 0
 348 0038 40F20003 		movw	r3, #:lower16:os_trv
 349 003c C0F20003 		movt	r3, #:upper16:os_trv
 350 0040 1868     		ldr	r0, [r3, #0]
 351 0042 40F20003 		movw	r3, #:lower16:os_time
 352 0046 C0F20003 		movt	r3, #:upper16:os_time
 353 004a 1B68     		ldr	r3, [r3, #0]
 354 004c 00FB0333 		mla	r3, r0, r3, r3
 355 0050 E018     		adds	r0, r4, r3
 566:../Dave/Generated/src/RTOS001/SRC/rt_CMSIS.c ****   }
 567:../Dave/Generated/src/RTOS001/SRC/rt_CMSIS.c **** 
 568:../Dave/Generated/src/RTOS001/SRC/rt_CMSIS.c ****   return tick;
 569:../Dave/Generated/src/RTOS001/SRC/rt_CMSIS.c **** }
 356              		.loc 1 569 0
 357 0052 10BD     		pop	{r4, pc}
 358              		.cfi_endproc
 359              	.LFE111:
 361              		.section	.text.osKernelInitialize,"ax",%progbits
 362              		.align	2
 363              		.global	osKernelInitialize
 364              		.thumb
 365              		.thumb_func
 367              	osKernelInitialize:
 368              	.LFB112:
 570:../Dave/Generated/src/RTOS001/SRC/rt_CMSIS.c **** 
 571:../Dave/Generated/src/RTOS001/SRC/rt_CMSIS.c **** // Kernel Control Public API
 572:../Dave/Generated/src/RTOS001/SRC/rt_CMSIS.c **** 
 573:../Dave/Generated/src/RTOS001/SRC/rt_CMSIS.c **** /// Initialize the RTOS Kernel for creating objects
 574:../Dave/Generated/src/RTOS001/SRC/rt_CMSIS.c **** osStatus osKernelInitialize (void) {
 369              		.loc 1 574 0
 370              		.cfi_startproc
 371              		@ args = 0, pretend = 0, frame = 0
 372              		@ frame_needed = 0, uses_anonymous_args = 0
 373 0000 10B5     		push	{r4, lr}
 374              	.LCFI3:
 375              		.cfi_def_cfa_offset 8
 376              		.cfi_offset 4, -8
 377              		.cfi_offset 14, -4
 378              	.LBB206:
 379              	.LBB207:
 383:C:\DAVE-3.1.10\eclipse\/../CMSIS/Include\core_cmFunc.h ****   __ASM volatile ("MRS %0, ipsr" : "=r" (result) );
 380              		.loc 2 383 0
 381              	@ 383 "C:\DAVE-3.1.10\eclipse\/../CMSIS/Include/core_cmFunc.h" 1
 382 0002 EFF30584 		MRS r4, ipsr
 383              	@ 0 "" 2
 384              		.thumb
 385              	.LBE207:
 386              	.LBE206:
 575:../Dave/Generated/src/RTOS001/SRC/rt_CMSIS.c ****   if (__get_IPSR() != 0) return osErrorISR;     // Not allowed in ISR
 387              		.loc 1 575 0
 388 0006 5CB9     		cbnz	r4, .L28
 389              	.LBB208:
 390              	.LBB209:
 356:C:\DAVE-3.1.10\eclipse\/../CMSIS/Include\core_cmFunc.h ****   __ASM volatile ("MRS %0, control" : "=r" (result) );
 391              		.loc 2 356 0
 392              	@ 356 "C:\DAVE-3.1.10\eclipse\/../CMSIS/Include/core_cmFunc.h" 1
 393 0008 EFF31484 		MRS r4, control
 394              	@ 0 "" 2
 395              		.thumb
 396              	.LBE209:
 397              	.LBE208:
 576:../Dave/Generated/src/RTOS001/SRC/rt_CMSIS.c ****   if ((__get_CONTROL() & 1) == 0) {             // Privileged mode
 398              		.loc 1 576 0
 399 000c 14F0010F 		tst	r4, #1
 400 0010 02D1     		bne	.L27
 577:../Dave/Generated/src/RTOS001/SRC/rt_CMSIS.c ****     return   svcKernelInitialize();
 401              		.loc 1 577 0
 402 0012 FFF7FEFF 		bl	svcKernelInitialize
 403 0016 10BD     		pop	{r4, pc}
 404              	.L27:
 405              	.LBB210:
 406              	.LBB211:
 488:../Dave/Generated/src/RTOS001/SRC/rt_CMSIS.c **** SVC_0_1(svcKernelInitialize, osStatus, RET_osStatus)
 407              		.loc 1 488 0
 408              	@ 488 "../Dave/Generated/src/RTOS001/SRC/rt_CMSIS.c" 1
 409 0018 DFF80CC0 		ldr r12,=svcKernelInitialize
 410 001c 00DF     		svc 0
 411              	@ 0 "" 2
 412              		.thumb
 413              	.LBE211:
 414              	.LBE210:
 578:../Dave/Generated/src/RTOS001/SRC/rt_CMSIS.c ****   } else {
 579:../Dave/Generated/src/RTOS001/SRC/rt_CMSIS.c ****     return __svcKernelInitialize();
 415              		.loc 1 579 0
 416 001e 10BD     		pop	{r4, pc}
 417              	.L28:
 575:../Dave/Generated/src/RTOS001/SRC/rt_CMSIS.c ****   if (__get_IPSR() != 0) return osErrorISR;     // Not allowed in ISR
 418              		.loc 1 575 0
 419 0020 4FF08200 		mov	r0, #130
 580:../Dave/Generated/src/RTOS001/SRC/rt_CMSIS.c ****   }
 581:../Dave/Generated/src/RTOS001/SRC/rt_CMSIS.c **** }
 420              		.loc 1 581 0
 421 0024 10BD     		pop	{r4, pc}
 422              		.cfi_endproc
 423              	.LFE112:
 425 0026 0000     		.section	.text.osKernelStart,"ax",%progbits
 426              		.align	2
 427              		.global	osKernelStart
 428              		.thumb
 429              		.thumb_func
 431              	osKernelStart:
 432              	.LFB113:
 582:../Dave/Generated/src/RTOS001/SRC/rt_CMSIS.c **** 
 583:../Dave/Generated/src/RTOS001/SRC/rt_CMSIS.c **** /// Start the RTOS Kernel
 584:../Dave/Generated/src/RTOS001/SRC/rt_CMSIS.c **** osStatus osKernelStart (void) {
 433              		.loc 1 584 0
 434              		.cfi_startproc
 435              		@ args = 0, pretend = 0, frame = 32
 436              		@ frame_needed = 0, uses_anonymous_args = 0
 437 0000 30B5     		push	{r4, r5, lr}
 438              	.LCFI4:
 439              		.cfi_def_cfa_offset 12
 440              		.cfi_offset 4, -12
 441              		.cfi_offset 5, -8
 442              		.cfi_offset 14, -4
 443 0002 89B0     		sub	sp, sp, #36
 444              	.LCFI5:
 445              		.cfi_def_cfa_offset 48
 446              	.LBB212:
 447              	.LBB213:
 383:C:\DAVE-3.1.10\eclipse\/../CMSIS/Include\core_cmFunc.h ****   __ASM volatile ("MRS %0, ipsr" : "=r" (result) );
 448              		.loc 2 383 0
 449              	@ 383 "C:\DAVE-3.1.10\eclipse\/../CMSIS/Include/core_cmFunc.h" 1
 450 0004 EFF30584 		MRS r4, ipsr
 451              	@ 0 "" 2
 452              		.thumb
 453              	.LBE213:
 454              	.LBE212:
 585:../Dave/Generated/src/RTOS001/SRC/rt_CMSIS.c ****   uint32_t stack[8];
 586:../Dave/Generated/src/RTOS001/SRC/rt_CMSIS.c **** 
 587:../Dave/Generated/src/RTOS001/SRC/rt_CMSIS.c ****   if (__get_IPSR() != 0) return osErrorISR;     // Not allowed in ISR
 455              		.loc 1 587 0
 456 0008 002C     		cmp	r4, #0
 457 000a 3AD1     		bne	.L38
 458              	.LBB214:
 459              	.LBB215:
 356:C:\DAVE-3.1.10\eclipse\/../CMSIS/Include\core_cmFunc.h ****   __ASM volatile ("MRS %0, control" : "=r" (result) );
 460              		.loc 2 356 0
 461              	@ 356 "C:\DAVE-3.1.10\eclipse\/../CMSIS/Include/core_cmFunc.h" 1
 462 000c EFF31484 		MRS r4, control
 463              	@ 0 "" 2
 464              		.thumb
 465              	.LBE215:
 466              	.LBE214:
 588:../Dave/Generated/src/RTOS001/SRC/rt_CMSIS.c ****   switch (__get_CONTROL() & 0x03) {
 467              		.loc 1 588 0
 468 0010 04F00304 		and	r4, r4, #3
 469 0014 032C     		cmp	r4, #3
 470 0016 30D8     		bhi	.L31
 471 0018 DFE804F0 		tbb	[pc, r4]
 472              	.L35:
 473 001c 02       		.byte	(.L32-.L35)/2
 474 001d 36       		.byte	(.L39-.L35)/2
 475 001e 16       		.byte	(.L33-.L35)/2
 476 001f 27       		.byte	(.L34-.L35)/2
 477              		.align	1
 478              	.L32:
 479              	.LBB216:
 480              	.LBB217:
 481              		.loc 2 441 0
 482 0020 08AC     		add	r4, sp, #32
 483              	@ 441 "C:\DAVE-3.1.10\eclipse\/../CMSIS/Include/core_cmFunc.h" 1
 484 0022 84F30988 		MSR psp, r4
 485              	
 486              	@ 0 "" 2
 487              		.thumb
 488              	.LBE217:
 489              	.LBE216:
 589:../Dave/Generated/src/RTOS001/SRC/rt_CMSIS.c ****     case 0x00:                                  // Privileged Thread mode & MSP
 590:../Dave/Generated/src/RTOS001/SRC/rt_CMSIS.c ****       __set_PSP((uint32_t)(stack + 8));         // Initial PSP
 591:../Dave/Generated/src/RTOS001/SRC/rt_CMSIS.c ****       if (os_flags & 1) {                       
 490              		.loc 1 591 0
 491 0026 40F20004 		movw	r4, #:lower16:os_flags
 492 002a C0F20004 		movt	r4, #:upper16:os_flags
 493 002e 2478     		ldrb	r4, [r4, #0]	@ zero_extendqisi2
 494 0030 14F0010F 		tst	r4, #1
 495              	.LBB218:
 496              	.LBB219:
 369:C:\DAVE-3.1.10\eclipse\/../CMSIS/Include\core_cmFunc.h ****   __ASM volatile ("MSR control, %0" : : "r" (control) : "memory");
 497              		.loc 2 369 0
 498 0034 14BF     		ite	ne
 499 0036 0224     		movne	r4, #2
 500              	.LBE219:
 501              	.LBE218:
 502              	.LBB220:
 503              	.LBB221:
 504 0038 0324     		moveq	r4, #3
 505              	@ 369 "C:\DAVE-3.1.10\eclipse\/../CMSIS/Include/core_cmFunc.h" 1
 506 003a 84F31488 		MSR control, r4
 507              	@ 0 "" 2
 508              		.thumb
 509              	.LBE221:
 510              	.LBE220:
 511              	.LBB222:
 512              	.LBB223:
 513              		.file 3 "C:\\DAVE-3.1.10\\eclipse\\/../CMSIS/Include/core_cmInstr.h"
   1:C:\DAVE-3.1.10\eclipse\/../CMSIS/Include\core_cmInstr.h **** /**************************************************************************//**
   2:C:\DAVE-3.1.10\eclipse\/../CMSIS/Include\core_cmInstr.h ****  * @file     core_cmInstr.h
   3:C:\DAVE-3.1.10\eclipse\/../CMSIS/Include\core_cmInstr.h ****  * @brief    CMSIS Cortex-M Core Instruction Access Header File
   4:C:\DAVE-3.1.10\eclipse\/../CMSIS/Include\core_cmInstr.h ****  * @version  V3.20
   5:C:\DAVE-3.1.10\eclipse\/../CMSIS/Include\core_cmInstr.h ****  * @date     05. March 2013
   6:C:\DAVE-3.1.10\eclipse\/../CMSIS/Include\core_cmInstr.h ****  *
   7:C:\DAVE-3.1.10\eclipse\/../CMSIS/Include\core_cmInstr.h ****  * @note
   8:C:\DAVE-3.1.10\eclipse\/../CMSIS/Include\core_cmInstr.h ****  *
   9:C:\DAVE-3.1.10\eclipse\/../CMSIS/Include\core_cmInstr.h ****  ******************************************************************************/
  10:C:\DAVE-3.1.10\eclipse\/../CMSIS/Include\core_cmInstr.h **** /* Copyright (c) 2009 - 2013 ARM LIMITED
  11:C:\DAVE-3.1.10\eclipse\/../CMSIS/Include\core_cmInstr.h **** 
  12:C:\DAVE-3.1.10\eclipse\/../CMSIS/Include\core_cmInstr.h ****    All rights reserved.
  13:C:\DAVE-3.1.10\eclipse\/../CMSIS/Include\core_cmInstr.h ****    Redistribution and use in source and binary forms, with or without
  14:C:\DAVE-3.1.10\eclipse\/../CMSIS/Include\core_cmInstr.h ****    modification, are permitted provided that the following conditions are met:
  15:C:\DAVE-3.1.10\eclipse\/../CMSIS/Include\core_cmInstr.h ****    - Redistributions of source code must retain the above copyright
  16:C:\DAVE-3.1.10\eclipse\/../CMSIS/Include\core_cmInstr.h ****      notice, this list of conditions and the following disclaimer.
  17:C:\DAVE-3.1.10\eclipse\/../CMSIS/Include\core_cmInstr.h ****    - Redistributions in binary form must reproduce the above copyright
  18:C:\DAVE-3.1.10\eclipse\/../CMSIS/Include\core_cmInstr.h ****      notice, this list of conditions and the following disclaimer in the
  19:C:\DAVE-3.1.10\eclipse\/../CMSIS/Include\core_cmInstr.h ****      documentation and/or other materials provided with the distribution.
  20:C:\DAVE-3.1.10\eclipse\/../CMSIS/Include\core_cmInstr.h ****    - Neither the name of ARM nor the names of its contributors may be used
  21:C:\DAVE-3.1.10\eclipse\/../CMSIS/Include\core_cmInstr.h ****      to endorse or promote products derived from this software without
  22:C:\DAVE-3.1.10\eclipse\/../CMSIS/Include\core_cmInstr.h ****      specific prior written permission.
  23:C:\DAVE-3.1.10\eclipse\/../CMSIS/Include\core_cmInstr.h ****    *
  24:C:\DAVE-3.1.10\eclipse\/../CMSIS/Include\core_cmInstr.h ****    THIS SOFTWARE IS PROVIDED BY THE COPYRIGHT HOLDERS AND CONTRIBUTORS "AS IS"
  25:C:\DAVE-3.1.10\eclipse\/../CMSIS/Include\core_cmInstr.h ****    AND ANY EXPRESS OR IMPLIED WARRANTIES, INCLUDING, BUT NOT LIMITED TO, THE
  26:C:\DAVE-3.1.10\eclipse\/../CMSIS/Include\core_cmInstr.h ****    IMPLIED WARRANTIES OF MERCHANTABILITY AND FITNESS FOR A PARTICULAR PURPOSE
  27:C:\DAVE-3.1.10\eclipse\/../CMSIS/Include\core_cmInstr.h ****    ARE DISCLAIMED. IN NO EVENT SHALL COPYRIGHT HOLDERS AND CONTRIBUTORS BE
  28:C:\DAVE-3.1.10\eclipse\/../CMSIS/Include\core_cmInstr.h ****    LIABLE FOR ANY DIRECT, INDIRECT, INCIDENTAL, SPECIAL, EXEMPLARY, OR
  29:C:\DAVE-3.1.10\eclipse\/../CMSIS/Include\core_cmInstr.h ****    CONSEQUENTIAL DAMAGES (INCLUDING, BUT NOT LIMITED TO, PROCUREMENT OF
  30:C:\DAVE-3.1.10\eclipse\/../CMSIS/Include\core_cmInstr.h ****    SUBSTITUTE GOODS OR SERVICES; LOSS OF USE, DATA, OR PROFITS; OR BUSINESS
  31:C:\DAVE-3.1.10\eclipse\/../CMSIS/Include\core_cmInstr.h ****    INTERRUPTION) HOWEVER CAUSED AND ON ANY THEORY OF LIABILITY, WHETHER IN
  32:C:\DAVE-3.1.10\eclipse\/../CMSIS/Include\core_cmInstr.h ****    CONTRACT, STRICT LIABILITY, OR TORT (INCLUDING NEGLIGENCE OR OTHERWISE)
  33:C:\DAVE-3.1.10\eclipse\/../CMSIS/Include\core_cmInstr.h ****    ARISING IN ANY WAY OUT OF THE USE OF THIS SOFTWARE, EVEN IF ADVISED OF THE
  34:C:\DAVE-3.1.10\eclipse\/../CMSIS/Include\core_cmInstr.h ****    POSSIBILITY OF SUCH DAMAGE.
  35:C:\DAVE-3.1.10\eclipse\/../CMSIS/Include\core_cmInstr.h ****    ---------------------------------------------------------------------------*/
  36:C:\DAVE-3.1.10\eclipse\/../CMSIS/Include\core_cmInstr.h **** 
  37:C:\DAVE-3.1.10\eclipse\/../CMSIS/Include\core_cmInstr.h **** 
  38:C:\DAVE-3.1.10\eclipse\/../CMSIS/Include\core_cmInstr.h **** #ifndef __CORE_CMINSTR_H
  39:C:\DAVE-3.1.10\eclipse\/../CMSIS/Include\core_cmInstr.h **** #define __CORE_CMINSTR_H
  40:C:\DAVE-3.1.10\eclipse\/../CMSIS/Include\core_cmInstr.h **** 
  41:C:\DAVE-3.1.10\eclipse\/../CMSIS/Include\core_cmInstr.h **** 
  42:C:\DAVE-3.1.10\eclipse\/../CMSIS/Include\core_cmInstr.h **** /* ##########################  Core Instruction Access  ######################### */
  43:C:\DAVE-3.1.10\eclipse\/../CMSIS/Include\core_cmInstr.h **** /** \defgroup CMSIS_Core_InstructionInterface CMSIS Core Instruction Interface
  44:C:\DAVE-3.1.10\eclipse\/../CMSIS/Include\core_cmInstr.h ****   Access to dedicated instructions
  45:C:\DAVE-3.1.10\eclipse\/../CMSIS/Include\core_cmInstr.h ****   @{
  46:C:\DAVE-3.1.10\eclipse\/../CMSIS/Include\core_cmInstr.h **** */
  47:C:\DAVE-3.1.10\eclipse\/../CMSIS/Include\core_cmInstr.h **** 
  48:C:\DAVE-3.1.10\eclipse\/../CMSIS/Include\core_cmInstr.h **** #if   defined ( __CC_ARM ) /*------------------RealView Compiler -----------------*/
  49:C:\DAVE-3.1.10\eclipse\/../CMSIS/Include\core_cmInstr.h **** /* ARM armcc specific functions */
  50:C:\DAVE-3.1.10\eclipse\/../CMSIS/Include\core_cmInstr.h **** 
  51:C:\DAVE-3.1.10\eclipse\/../CMSIS/Include\core_cmInstr.h **** #if (__ARMCC_VERSION < 400677)
  52:C:\DAVE-3.1.10\eclipse\/../CMSIS/Include\core_cmInstr.h ****   #error "Please use ARM Compiler Toolchain V4.0.677 or later!"
  53:C:\DAVE-3.1.10\eclipse\/../CMSIS/Include\core_cmInstr.h **** #endif
  54:C:\DAVE-3.1.10\eclipse\/../CMSIS/Include\core_cmInstr.h **** 
  55:C:\DAVE-3.1.10\eclipse\/../CMSIS/Include\core_cmInstr.h **** 
  56:C:\DAVE-3.1.10\eclipse\/../CMSIS/Include\core_cmInstr.h **** /** \brief  No Operation
  57:C:\DAVE-3.1.10\eclipse\/../CMSIS/Include\core_cmInstr.h **** 
  58:C:\DAVE-3.1.10\eclipse\/../CMSIS/Include\core_cmInstr.h ****     No Operation does nothing. This instruction can be used for code alignment purposes.
  59:C:\DAVE-3.1.10\eclipse\/../CMSIS/Include\core_cmInstr.h ****  */
  60:C:\DAVE-3.1.10\eclipse\/../CMSIS/Include\core_cmInstr.h **** #define __NOP                             __nop
  61:C:\DAVE-3.1.10\eclipse\/../CMSIS/Include\core_cmInstr.h **** 
  62:C:\DAVE-3.1.10\eclipse\/../CMSIS/Include\core_cmInstr.h **** 
  63:C:\DAVE-3.1.10\eclipse\/../CMSIS/Include\core_cmInstr.h **** /** \brief  Wait For Interrupt
  64:C:\DAVE-3.1.10\eclipse\/../CMSIS/Include\core_cmInstr.h **** 
  65:C:\DAVE-3.1.10\eclipse\/../CMSIS/Include\core_cmInstr.h ****     Wait For Interrupt is a hint instruction that suspends execution
  66:C:\DAVE-3.1.10\eclipse\/../CMSIS/Include\core_cmInstr.h ****     until one of a number of events occurs.
  67:C:\DAVE-3.1.10\eclipse\/../CMSIS/Include\core_cmInstr.h ****  */
  68:C:\DAVE-3.1.10\eclipse\/../CMSIS/Include\core_cmInstr.h **** #define __WFI                             __wfi
  69:C:\DAVE-3.1.10\eclipse\/../CMSIS/Include\core_cmInstr.h **** 
  70:C:\DAVE-3.1.10\eclipse\/../CMSIS/Include\core_cmInstr.h **** 
  71:C:\DAVE-3.1.10\eclipse\/../CMSIS/Include\core_cmInstr.h **** /** \brief  Wait For Event
  72:C:\DAVE-3.1.10\eclipse\/../CMSIS/Include\core_cmInstr.h **** 
  73:C:\DAVE-3.1.10\eclipse\/../CMSIS/Include\core_cmInstr.h ****     Wait For Event is a hint instruction that permits the processor to enter
  74:C:\DAVE-3.1.10\eclipse\/../CMSIS/Include\core_cmInstr.h ****     a low-power state until one of a number of events occurs.
  75:C:\DAVE-3.1.10\eclipse\/../CMSIS/Include\core_cmInstr.h ****  */
  76:C:\DAVE-3.1.10\eclipse\/../CMSIS/Include\core_cmInstr.h **** #define __WFE                             __wfe
  77:C:\DAVE-3.1.10\eclipse\/../CMSIS/Include\core_cmInstr.h **** 
  78:C:\DAVE-3.1.10\eclipse\/../CMSIS/Include\core_cmInstr.h **** 
  79:C:\DAVE-3.1.10\eclipse\/../CMSIS/Include\core_cmInstr.h **** /** \brief  Send Event
  80:C:\DAVE-3.1.10\eclipse\/../CMSIS/Include\core_cmInstr.h **** 
  81:C:\DAVE-3.1.10\eclipse\/../CMSIS/Include\core_cmInstr.h ****     Send Event is a hint instruction. It causes an event to be signaled to the CPU.
  82:C:\DAVE-3.1.10\eclipse\/../CMSIS/Include\core_cmInstr.h ****  */
  83:C:\DAVE-3.1.10\eclipse\/../CMSIS/Include\core_cmInstr.h **** #define __SEV                             __sev
  84:C:\DAVE-3.1.10\eclipse\/../CMSIS/Include\core_cmInstr.h **** 
  85:C:\DAVE-3.1.10\eclipse\/../CMSIS/Include\core_cmInstr.h **** 
  86:C:\DAVE-3.1.10\eclipse\/../CMSIS/Include\core_cmInstr.h **** /** \brief  Instruction Synchronization Barrier
  87:C:\DAVE-3.1.10\eclipse\/../CMSIS/Include\core_cmInstr.h **** 
  88:C:\DAVE-3.1.10\eclipse\/../CMSIS/Include\core_cmInstr.h ****     Instruction Synchronization Barrier flushes the pipeline in the processor,
  89:C:\DAVE-3.1.10\eclipse\/../CMSIS/Include\core_cmInstr.h ****     so that all instructions following the ISB are fetched from cache or
  90:C:\DAVE-3.1.10\eclipse\/../CMSIS/Include\core_cmInstr.h ****     memory, after the instruction has been completed.
  91:C:\DAVE-3.1.10\eclipse\/../CMSIS/Include\core_cmInstr.h ****  */
  92:C:\DAVE-3.1.10\eclipse\/../CMSIS/Include\core_cmInstr.h **** #define __ISB()                           __isb(0xF)
  93:C:\DAVE-3.1.10\eclipse\/../CMSIS/Include\core_cmInstr.h **** 
  94:C:\DAVE-3.1.10\eclipse\/../CMSIS/Include\core_cmInstr.h **** 
  95:C:\DAVE-3.1.10\eclipse\/../CMSIS/Include\core_cmInstr.h **** /** \brief  Data Synchronization Barrier
  96:C:\DAVE-3.1.10\eclipse\/../CMSIS/Include\core_cmInstr.h **** 
  97:C:\DAVE-3.1.10\eclipse\/../CMSIS/Include\core_cmInstr.h ****     This function acts as a special kind of Data Memory Barrier.
  98:C:\DAVE-3.1.10\eclipse\/../CMSIS/Include\core_cmInstr.h ****     It completes when all explicit memory accesses before this instruction complete.
  99:C:\DAVE-3.1.10\eclipse\/../CMSIS/Include\core_cmInstr.h ****  */
 100:C:\DAVE-3.1.10\eclipse\/../CMSIS/Include\core_cmInstr.h **** #define __DSB()                           __dsb(0xF)
 101:C:\DAVE-3.1.10\eclipse\/../CMSIS/Include\core_cmInstr.h **** 
 102:C:\DAVE-3.1.10\eclipse\/../CMSIS/Include\core_cmInstr.h **** 
 103:C:\DAVE-3.1.10\eclipse\/../CMSIS/Include\core_cmInstr.h **** /** \brief  Data Memory Barrier
 104:C:\DAVE-3.1.10\eclipse\/../CMSIS/Include\core_cmInstr.h **** 
 105:C:\DAVE-3.1.10\eclipse\/../CMSIS/Include\core_cmInstr.h ****     This function ensures the apparent order of the explicit memory operations before
 106:C:\DAVE-3.1.10\eclipse\/../CMSIS/Include\core_cmInstr.h ****     and after the instruction, without ensuring their completion.
 107:C:\DAVE-3.1.10\eclipse\/../CMSIS/Include\core_cmInstr.h ****  */
 108:C:\DAVE-3.1.10\eclipse\/../CMSIS/Include\core_cmInstr.h **** #define __DMB()                           __dmb(0xF)
 109:C:\DAVE-3.1.10\eclipse\/../CMSIS/Include\core_cmInstr.h **** 
 110:C:\DAVE-3.1.10\eclipse\/../CMSIS/Include\core_cmInstr.h **** 
 111:C:\DAVE-3.1.10\eclipse\/../CMSIS/Include\core_cmInstr.h **** /** \brief  Reverse byte order (32 bit)
 112:C:\DAVE-3.1.10\eclipse\/../CMSIS/Include\core_cmInstr.h **** 
 113:C:\DAVE-3.1.10\eclipse\/../CMSIS/Include\core_cmInstr.h ****     This function reverses the byte order in integer value.
 114:C:\DAVE-3.1.10\eclipse\/../CMSIS/Include\core_cmInstr.h **** 
 115:C:\DAVE-3.1.10\eclipse\/../CMSIS/Include\core_cmInstr.h ****     \param [in]    value  Value to reverse
 116:C:\DAVE-3.1.10\eclipse\/../CMSIS/Include\core_cmInstr.h ****     \return               Reversed value
 117:C:\DAVE-3.1.10\eclipse\/../CMSIS/Include\core_cmInstr.h ****  */
 118:C:\DAVE-3.1.10\eclipse\/../CMSIS/Include\core_cmInstr.h **** #define __REV                             __rev
 119:C:\DAVE-3.1.10\eclipse\/../CMSIS/Include\core_cmInstr.h **** 
 120:C:\DAVE-3.1.10\eclipse\/../CMSIS/Include\core_cmInstr.h **** 
 121:C:\DAVE-3.1.10\eclipse\/../CMSIS/Include\core_cmInstr.h **** /** \brief  Reverse byte order (16 bit)
 122:C:\DAVE-3.1.10\eclipse\/../CMSIS/Include\core_cmInstr.h **** 
 123:C:\DAVE-3.1.10\eclipse\/../CMSIS/Include\core_cmInstr.h ****     This function reverses the byte order in two unsigned short values.
 124:C:\DAVE-3.1.10\eclipse\/../CMSIS/Include\core_cmInstr.h **** 
 125:C:\DAVE-3.1.10\eclipse\/../CMSIS/Include\core_cmInstr.h ****     \param [in]    value  Value to reverse
 126:C:\DAVE-3.1.10\eclipse\/../CMSIS/Include\core_cmInstr.h ****     \return               Reversed value
 127:C:\DAVE-3.1.10\eclipse\/../CMSIS/Include\core_cmInstr.h ****  */
 128:C:\DAVE-3.1.10\eclipse\/../CMSIS/Include\core_cmInstr.h **** #ifndef __NO_EMBEDDED_ASM
 129:C:\DAVE-3.1.10\eclipse\/../CMSIS/Include\core_cmInstr.h **** __attribute__((section(".rev16_text"))) __STATIC_INLINE __ASM uint32_t __REV16(uint32_t value)
 130:C:\DAVE-3.1.10\eclipse\/../CMSIS/Include\core_cmInstr.h **** {
 131:C:\DAVE-3.1.10\eclipse\/../CMSIS/Include\core_cmInstr.h ****   rev16 r0, r0
 132:C:\DAVE-3.1.10\eclipse\/../CMSIS/Include\core_cmInstr.h ****   bx lr
 133:C:\DAVE-3.1.10\eclipse\/../CMSIS/Include\core_cmInstr.h **** }
 134:C:\DAVE-3.1.10\eclipse\/../CMSIS/Include\core_cmInstr.h **** #endif
 135:C:\DAVE-3.1.10\eclipse\/../CMSIS/Include\core_cmInstr.h **** 
 136:C:\DAVE-3.1.10\eclipse\/../CMSIS/Include\core_cmInstr.h **** /** \brief  Reverse byte order in signed short value
 137:C:\DAVE-3.1.10\eclipse\/../CMSIS/Include\core_cmInstr.h **** 
 138:C:\DAVE-3.1.10\eclipse\/../CMSIS/Include\core_cmInstr.h ****     This function reverses the byte order in a signed short value with sign extension to integer.
 139:C:\DAVE-3.1.10\eclipse\/../CMSIS/Include\core_cmInstr.h **** 
 140:C:\DAVE-3.1.10\eclipse\/../CMSIS/Include\core_cmInstr.h ****     \param [in]    value  Value to reverse
 141:C:\DAVE-3.1.10\eclipse\/../CMSIS/Include\core_cmInstr.h ****     \return               Reversed value
 142:C:\DAVE-3.1.10\eclipse\/../CMSIS/Include\core_cmInstr.h ****  */
 143:C:\DAVE-3.1.10\eclipse\/../CMSIS/Include\core_cmInstr.h **** #ifndef __NO_EMBEDDED_ASM
 144:C:\DAVE-3.1.10\eclipse\/../CMSIS/Include\core_cmInstr.h **** __attribute__((section(".revsh_text"))) __STATIC_INLINE __ASM int32_t __REVSH(int32_t value)
 145:C:\DAVE-3.1.10\eclipse\/../CMSIS/Include\core_cmInstr.h **** {
 146:C:\DAVE-3.1.10\eclipse\/../CMSIS/Include\core_cmInstr.h ****   revsh r0, r0
 147:C:\DAVE-3.1.10\eclipse\/../CMSIS/Include\core_cmInstr.h ****   bx lr
 148:C:\DAVE-3.1.10\eclipse\/../CMSIS/Include\core_cmInstr.h **** }
 149:C:\DAVE-3.1.10\eclipse\/../CMSIS/Include\core_cmInstr.h **** #endif
 150:C:\DAVE-3.1.10\eclipse\/../CMSIS/Include\core_cmInstr.h **** 
 151:C:\DAVE-3.1.10\eclipse\/../CMSIS/Include\core_cmInstr.h **** 
 152:C:\DAVE-3.1.10\eclipse\/../CMSIS/Include\core_cmInstr.h **** /** \brief  Rotate Right in unsigned value (32 bit)
 153:C:\DAVE-3.1.10\eclipse\/../CMSIS/Include\core_cmInstr.h **** 
 154:C:\DAVE-3.1.10\eclipse\/../CMSIS/Include\core_cmInstr.h ****     This function Rotate Right (immediate) provides the value of the contents of a register rotated
 155:C:\DAVE-3.1.10\eclipse\/../CMSIS/Include\core_cmInstr.h **** 
 156:C:\DAVE-3.1.10\eclipse\/../CMSIS/Include\core_cmInstr.h ****     \param [in]    value  Value to rotate
 157:C:\DAVE-3.1.10\eclipse\/../CMSIS/Include\core_cmInstr.h ****     \param [in]    value  Number of Bits to rotate
 158:C:\DAVE-3.1.10\eclipse\/../CMSIS/Include\core_cmInstr.h ****     \return               Rotated value
 159:C:\DAVE-3.1.10\eclipse\/../CMSIS/Include\core_cmInstr.h ****  */
 160:C:\DAVE-3.1.10\eclipse\/../CMSIS/Include\core_cmInstr.h **** #define __ROR                             __ror
 161:C:\DAVE-3.1.10\eclipse\/../CMSIS/Include\core_cmInstr.h **** 
 162:C:\DAVE-3.1.10\eclipse\/../CMSIS/Include\core_cmInstr.h **** 
 163:C:\DAVE-3.1.10\eclipse\/../CMSIS/Include\core_cmInstr.h **** /** \brief  Breakpoint
 164:C:\DAVE-3.1.10\eclipse\/../CMSIS/Include\core_cmInstr.h **** 
 165:C:\DAVE-3.1.10\eclipse\/../CMSIS/Include\core_cmInstr.h ****     This function causes the processor to enter Debug state.
 166:C:\DAVE-3.1.10\eclipse\/../CMSIS/Include\core_cmInstr.h ****     Debug tools can use this to investigate system state when the instruction at a particular addre
 167:C:\DAVE-3.1.10\eclipse\/../CMSIS/Include\core_cmInstr.h **** 
 168:C:\DAVE-3.1.10\eclipse\/../CMSIS/Include\core_cmInstr.h ****     \param [in]    value  is ignored by the processor.
 169:C:\DAVE-3.1.10\eclipse\/../CMSIS/Include\core_cmInstr.h ****                    If required, a debugger can use it to store additional information about the bre
 170:C:\DAVE-3.1.10\eclipse\/../CMSIS/Include\core_cmInstr.h ****  */
 171:C:\DAVE-3.1.10\eclipse\/../CMSIS/Include\core_cmInstr.h **** #define __BKPT(value)                       __breakpoint(value)
 172:C:\DAVE-3.1.10\eclipse\/../CMSIS/Include\core_cmInstr.h **** 
 173:C:\DAVE-3.1.10\eclipse\/../CMSIS/Include\core_cmInstr.h **** 
 174:C:\DAVE-3.1.10\eclipse\/../CMSIS/Include\core_cmInstr.h **** #if       (__CORTEX_M >= 0x03)
 175:C:\DAVE-3.1.10\eclipse\/../CMSIS/Include\core_cmInstr.h **** 
 176:C:\DAVE-3.1.10\eclipse\/../CMSIS/Include\core_cmInstr.h **** /** \brief  Reverse bit order of value
 177:C:\DAVE-3.1.10\eclipse\/../CMSIS/Include\core_cmInstr.h **** 
 178:C:\DAVE-3.1.10\eclipse\/../CMSIS/Include\core_cmInstr.h ****     This function reverses the bit order of the given value.
 179:C:\DAVE-3.1.10\eclipse\/../CMSIS/Include\core_cmInstr.h **** 
 180:C:\DAVE-3.1.10\eclipse\/../CMSIS/Include\core_cmInstr.h ****     \param [in]    value  Value to reverse
 181:C:\DAVE-3.1.10\eclipse\/../CMSIS/Include\core_cmInstr.h ****     \return               Reversed value
 182:C:\DAVE-3.1.10\eclipse\/../CMSIS/Include\core_cmInstr.h ****  */
 183:C:\DAVE-3.1.10\eclipse\/../CMSIS/Include\core_cmInstr.h **** #define __RBIT                            __rbit
 184:C:\DAVE-3.1.10\eclipse\/../CMSIS/Include\core_cmInstr.h **** 
 185:C:\DAVE-3.1.10\eclipse\/../CMSIS/Include\core_cmInstr.h **** 
 186:C:\DAVE-3.1.10\eclipse\/../CMSIS/Include\core_cmInstr.h **** /** \brief  LDR Exclusive (8 bit)
 187:C:\DAVE-3.1.10\eclipse\/../CMSIS/Include\core_cmInstr.h **** 
 188:C:\DAVE-3.1.10\eclipse\/../CMSIS/Include\core_cmInstr.h ****     This function performs a exclusive LDR command for 8 bit value.
 189:C:\DAVE-3.1.10\eclipse\/../CMSIS/Include\core_cmInstr.h **** 
 190:C:\DAVE-3.1.10\eclipse\/../CMSIS/Include\core_cmInstr.h ****     \param [in]    ptr  Pointer to data
 191:C:\DAVE-3.1.10\eclipse\/../CMSIS/Include\core_cmInstr.h ****     \return             value of type uint8_t at (*ptr)
 192:C:\DAVE-3.1.10\eclipse\/../CMSIS/Include\core_cmInstr.h ****  */
 193:C:\DAVE-3.1.10\eclipse\/../CMSIS/Include\core_cmInstr.h **** #define __LDREXB(ptr)                     ((uint8_t ) __ldrex(ptr))
 194:C:\DAVE-3.1.10\eclipse\/../CMSIS/Include\core_cmInstr.h **** 
 195:C:\DAVE-3.1.10\eclipse\/../CMSIS/Include\core_cmInstr.h **** 
 196:C:\DAVE-3.1.10\eclipse\/../CMSIS/Include\core_cmInstr.h **** /** \brief  LDR Exclusive (16 bit)
 197:C:\DAVE-3.1.10\eclipse\/../CMSIS/Include\core_cmInstr.h **** 
 198:C:\DAVE-3.1.10\eclipse\/../CMSIS/Include\core_cmInstr.h ****     This function performs a exclusive LDR command for 16 bit values.
 199:C:\DAVE-3.1.10\eclipse\/../CMSIS/Include\core_cmInstr.h **** 
 200:C:\DAVE-3.1.10\eclipse\/../CMSIS/Include\core_cmInstr.h ****     \param [in]    ptr  Pointer to data
 201:C:\DAVE-3.1.10\eclipse\/../CMSIS/Include\core_cmInstr.h ****     \return        value of type uint16_t at (*ptr)
 202:C:\DAVE-3.1.10\eclipse\/../CMSIS/Include\core_cmInstr.h ****  */
 203:C:\DAVE-3.1.10\eclipse\/../CMSIS/Include\core_cmInstr.h **** #define __LDREXH(ptr)                     ((uint16_t) __ldrex(ptr))
 204:C:\DAVE-3.1.10\eclipse\/../CMSIS/Include\core_cmInstr.h **** 
 205:C:\DAVE-3.1.10\eclipse\/../CMSIS/Include\core_cmInstr.h **** 
 206:C:\DAVE-3.1.10\eclipse\/../CMSIS/Include\core_cmInstr.h **** /** \brief  LDR Exclusive (32 bit)
 207:C:\DAVE-3.1.10\eclipse\/../CMSIS/Include\core_cmInstr.h **** 
 208:C:\DAVE-3.1.10\eclipse\/../CMSIS/Include\core_cmInstr.h ****     This function performs a exclusive LDR command for 32 bit values.
 209:C:\DAVE-3.1.10\eclipse\/../CMSIS/Include\core_cmInstr.h **** 
 210:C:\DAVE-3.1.10\eclipse\/../CMSIS/Include\core_cmInstr.h ****     \param [in]    ptr  Pointer to data
 211:C:\DAVE-3.1.10\eclipse\/../CMSIS/Include\core_cmInstr.h ****     \return        value of type uint32_t at (*ptr)
 212:C:\DAVE-3.1.10\eclipse\/../CMSIS/Include\core_cmInstr.h ****  */
 213:C:\DAVE-3.1.10\eclipse\/../CMSIS/Include\core_cmInstr.h **** #define __LDREXW(ptr)                     ((uint32_t ) __ldrex(ptr))
 214:C:\DAVE-3.1.10\eclipse\/../CMSIS/Include\core_cmInstr.h **** 
 215:C:\DAVE-3.1.10\eclipse\/../CMSIS/Include\core_cmInstr.h **** 
 216:C:\DAVE-3.1.10\eclipse\/../CMSIS/Include\core_cmInstr.h **** /** \brief  STR Exclusive (8 bit)
 217:C:\DAVE-3.1.10\eclipse\/../CMSIS/Include\core_cmInstr.h **** 
 218:C:\DAVE-3.1.10\eclipse\/../CMSIS/Include\core_cmInstr.h ****     This function performs a exclusive STR command for 8 bit values.
 219:C:\DAVE-3.1.10\eclipse\/../CMSIS/Include\core_cmInstr.h **** 
 220:C:\DAVE-3.1.10\eclipse\/../CMSIS/Include\core_cmInstr.h ****     \param [in]  value  Value to store
 221:C:\DAVE-3.1.10\eclipse\/../CMSIS/Include\core_cmInstr.h ****     \param [in]    ptr  Pointer to location
 222:C:\DAVE-3.1.10\eclipse\/../CMSIS/Include\core_cmInstr.h ****     \return          0  Function succeeded
 223:C:\DAVE-3.1.10\eclipse\/../CMSIS/Include\core_cmInstr.h ****     \return          1  Function failed
 224:C:\DAVE-3.1.10\eclipse\/../CMSIS/Include\core_cmInstr.h ****  */
 225:C:\DAVE-3.1.10\eclipse\/../CMSIS/Include\core_cmInstr.h **** #define __STREXB(value, ptr)              __strex(value, ptr)
 226:C:\DAVE-3.1.10\eclipse\/../CMSIS/Include\core_cmInstr.h **** 
 227:C:\DAVE-3.1.10\eclipse\/../CMSIS/Include\core_cmInstr.h **** 
 228:C:\DAVE-3.1.10\eclipse\/../CMSIS/Include\core_cmInstr.h **** /** \brief  STR Exclusive (16 bit)
 229:C:\DAVE-3.1.10\eclipse\/../CMSIS/Include\core_cmInstr.h **** 
 230:C:\DAVE-3.1.10\eclipse\/../CMSIS/Include\core_cmInstr.h ****     This function performs a exclusive STR command for 16 bit values.
 231:C:\DAVE-3.1.10\eclipse\/../CMSIS/Include\core_cmInstr.h **** 
 232:C:\DAVE-3.1.10\eclipse\/../CMSIS/Include\core_cmInstr.h ****     \param [in]  value  Value to store
 233:C:\DAVE-3.1.10\eclipse\/../CMSIS/Include\core_cmInstr.h ****     \param [in]    ptr  Pointer to location
 234:C:\DAVE-3.1.10\eclipse\/../CMSIS/Include\core_cmInstr.h ****     \return          0  Function succeeded
 235:C:\DAVE-3.1.10\eclipse\/../CMSIS/Include\core_cmInstr.h ****     \return          1  Function failed
 236:C:\DAVE-3.1.10\eclipse\/../CMSIS/Include\core_cmInstr.h ****  */
 237:C:\DAVE-3.1.10\eclipse\/../CMSIS/Include\core_cmInstr.h **** #define __STREXH(value, ptr)              __strex(value, ptr)
 238:C:\DAVE-3.1.10\eclipse\/../CMSIS/Include\core_cmInstr.h **** 
 239:C:\DAVE-3.1.10\eclipse\/../CMSIS/Include\core_cmInstr.h **** 
 240:C:\DAVE-3.1.10\eclipse\/../CMSIS/Include\core_cmInstr.h **** /** \brief  STR Exclusive (32 bit)
 241:C:\DAVE-3.1.10\eclipse\/../CMSIS/Include\core_cmInstr.h **** 
 242:C:\DAVE-3.1.10\eclipse\/../CMSIS/Include\core_cmInstr.h ****     This function performs a exclusive STR command for 32 bit values.
 243:C:\DAVE-3.1.10\eclipse\/../CMSIS/Include\core_cmInstr.h **** 
 244:C:\DAVE-3.1.10\eclipse\/../CMSIS/Include\core_cmInstr.h ****     \param [in]  value  Value to store
 245:C:\DAVE-3.1.10\eclipse\/../CMSIS/Include\core_cmInstr.h ****     \param [in]    ptr  Pointer to location
 246:C:\DAVE-3.1.10\eclipse\/../CMSIS/Include\core_cmInstr.h ****     \return          0  Function succeeded
 247:C:\DAVE-3.1.10\eclipse\/../CMSIS/Include\core_cmInstr.h ****     \return          1  Function failed
 248:C:\DAVE-3.1.10\eclipse\/../CMSIS/Include\core_cmInstr.h ****  */
 249:C:\DAVE-3.1.10\eclipse\/../CMSIS/Include\core_cmInstr.h **** #define __STREXW(value, ptr)              __strex(value, ptr)
 250:C:\DAVE-3.1.10\eclipse\/../CMSIS/Include\core_cmInstr.h **** 
 251:C:\DAVE-3.1.10\eclipse\/../CMSIS/Include\core_cmInstr.h **** 
 252:C:\DAVE-3.1.10\eclipse\/../CMSIS/Include\core_cmInstr.h **** /** \brief  Remove the exclusive lock
 253:C:\DAVE-3.1.10\eclipse\/../CMSIS/Include\core_cmInstr.h **** 
 254:C:\DAVE-3.1.10\eclipse\/../CMSIS/Include\core_cmInstr.h ****     This function removes the exclusive lock which is created by LDREX.
 255:C:\DAVE-3.1.10\eclipse\/../CMSIS/Include\core_cmInstr.h **** 
 256:C:\DAVE-3.1.10\eclipse\/../CMSIS/Include\core_cmInstr.h ****  */
 257:C:\DAVE-3.1.10\eclipse\/../CMSIS/Include\core_cmInstr.h **** #define __CLREX                           __clrex
 258:C:\DAVE-3.1.10\eclipse\/../CMSIS/Include\core_cmInstr.h **** 
 259:C:\DAVE-3.1.10\eclipse\/../CMSIS/Include\core_cmInstr.h **** 
 260:C:\DAVE-3.1.10\eclipse\/../CMSIS/Include\core_cmInstr.h **** /** \brief  Signed Saturate
 261:C:\DAVE-3.1.10\eclipse\/../CMSIS/Include\core_cmInstr.h **** 
 262:C:\DAVE-3.1.10\eclipse\/../CMSIS/Include\core_cmInstr.h ****     This function saturates a signed value.
 263:C:\DAVE-3.1.10\eclipse\/../CMSIS/Include\core_cmInstr.h **** 
 264:C:\DAVE-3.1.10\eclipse\/../CMSIS/Include\core_cmInstr.h ****     \param [in]  value  Value to be saturated
 265:C:\DAVE-3.1.10\eclipse\/../CMSIS/Include\core_cmInstr.h ****     \param [in]    sat  Bit position to saturate to (1..32)
 266:C:\DAVE-3.1.10\eclipse\/../CMSIS/Include\core_cmInstr.h ****     \return             Saturated value
 267:C:\DAVE-3.1.10\eclipse\/../CMSIS/Include\core_cmInstr.h ****  */
 268:C:\DAVE-3.1.10\eclipse\/../CMSIS/Include\core_cmInstr.h **** #define __SSAT                            __ssat
 269:C:\DAVE-3.1.10\eclipse\/../CMSIS/Include\core_cmInstr.h **** 
 270:C:\DAVE-3.1.10\eclipse\/../CMSIS/Include\core_cmInstr.h **** 
 271:C:\DAVE-3.1.10\eclipse\/../CMSIS/Include\core_cmInstr.h **** /** \brief  Unsigned Saturate
 272:C:\DAVE-3.1.10\eclipse\/../CMSIS/Include\core_cmInstr.h **** 
 273:C:\DAVE-3.1.10\eclipse\/../CMSIS/Include\core_cmInstr.h ****     This function saturates an unsigned value.
 274:C:\DAVE-3.1.10\eclipse\/../CMSIS/Include\core_cmInstr.h **** 
 275:C:\DAVE-3.1.10\eclipse\/../CMSIS/Include\core_cmInstr.h ****     \param [in]  value  Value to be saturated
 276:C:\DAVE-3.1.10\eclipse\/../CMSIS/Include\core_cmInstr.h ****     \param [in]    sat  Bit position to saturate to (0..31)
 277:C:\DAVE-3.1.10\eclipse\/../CMSIS/Include\core_cmInstr.h ****     \return             Saturated value
 278:C:\DAVE-3.1.10\eclipse\/../CMSIS/Include\core_cmInstr.h ****  */
 279:C:\DAVE-3.1.10\eclipse\/../CMSIS/Include\core_cmInstr.h **** #define __USAT                            __usat
 280:C:\DAVE-3.1.10\eclipse\/../CMSIS/Include\core_cmInstr.h **** 
 281:C:\DAVE-3.1.10\eclipse\/../CMSIS/Include\core_cmInstr.h **** 
 282:C:\DAVE-3.1.10\eclipse\/../CMSIS/Include\core_cmInstr.h **** /** \brief  Count leading zeros
 283:C:\DAVE-3.1.10\eclipse\/../CMSIS/Include\core_cmInstr.h **** 
 284:C:\DAVE-3.1.10\eclipse\/../CMSIS/Include\core_cmInstr.h ****     This function counts the number of leading zeros of a data value.
 285:C:\DAVE-3.1.10\eclipse\/../CMSIS/Include\core_cmInstr.h **** 
 286:C:\DAVE-3.1.10\eclipse\/../CMSIS/Include\core_cmInstr.h ****     \param [in]  value  Value to count the leading zeros
 287:C:\DAVE-3.1.10\eclipse\/../CMSIS/Include\core_cmInstr.h ****     \return             number of leading zeros in value
 288:C:\DAVE-3.1.10\eclipse\/../CMSIS/Include\core_cmInstr.h ****  */
 289:C:\DAVE-3.1.10\eclipse\/../CMSIS/Include\core_cmInstr.h **** #define __CLZ                             __clz
 290:C:\DAVE-3.1.10\eclipse\/../CMSIS/Include\core_cmInstr.h **** 
 291:C:\DAVE-3.1.10\eclipse\/../CMSIS/Include\core_cmInstr.h **** #endif /* (__CORTEX_M >= 0x03) */
 292:C:\DAVE-3.1.10\eclipse\/../CMSIS/Include\core_cmInstr.h **** 
 293:C:\DAVE-3.1.10\eclipse\/../CMSIS/Include\core_cmInstr.h **** 
 294:C:\DAVE-3.1.10\eclipse\/../CMSIS/Include\core_cmInstr.h **** 
 295:C:\DAVE-3.1.10\eclipse\/../CMSIS/Include\core_cmInstr.h **** #elif defined ( __ICCARM__ ) /*------------------ ICC Compiler -------------------*/
 296:C:\DAVE-3.1.10\eclipse\/../CMSIS/Include\core_cmInstr.h **** /* IAR iccarm specific functions */
 297:C:\DAVE-3.1.10\eclipse\/../CMSIS/Include\core_cmInstr.h **** 
 298:C:\DAVE-3.1.10\eclipse\/../CMSIS/Include\core_cmInstr.h **** #include <cmsis_iar.h>
 299:C:\DAVE-3.1.10\eclipse\/../CMSIS/Include\core_cmInstr.h **** 
 300:C:\DAVE-3.1.10\eclipse\/../CMSIS/Include\core_cmInstr.h **** 
 301:C:\DAVE-3.1.10\eclipse\/../CMSIS/Include\core_cmInstr.h **** #elif defined ( __TMS470__ ) /*---------------- TI CCS Compiler ------------------*/
 302:C:\DAVE-3.1.10\eclipse\/../CMSIS/Include\core_cmInstr.h **** /* TI CCS specific functions */
 303:C:\DAVE-3.1.10\eclipse\/../CMSIS/Include\core_cmInstr.h **** 
 304:C:\DAVE-3.1.10\eclipse\/../CMSIS/Include\core_cmInstr.h **** #include <cmsis_ccs.h>
 305:C:\DAVE-3.1.10\eclipse\/../CMSIS/Include\core_cmInstr.h **** 
 306:C:\DAVE-3.1.10\eclipse\/../CMSIS/Include\core_cmInstr.h **** 
 307:C:\DAVE-3.1.10\eclipse\/../CMSIS/Include\core_cmInstr.h **** #elif defined ( __GNUC__ ) /*------------------ GNU Compiler ---------------------*/
 308:C:\DAVE-3.1.10\eclipse\/../CMSIS/Include\core_cmInstr.h **** /* GNU gcc specific functions */
 309:C:\DAVE-3.1.10\eclipse\/../CMSIS/Include\core_cmInstr.h **** 
 310:C:\DAVE-3.1.10\eclipse\/../CMSIS/Include\core_cmInstr.h **** /* Define macros for porting to both thumb1 and thumb2.
 311:C:\DAVE-3.1.10\eclipse\/../CMSIS/Include\core_cmInstr.h ****  * For thumb1, use low register (r0-r7), specified by constrant "l"
 312:C:\DAVE-3.1.10\eclipse\/../CMSIS/Include\core_cmInstr.h ****  * Otherwise, use general registers, specified by constrant "r" */
 313:C:\DAVE-3.1.10\eclipse\/../CMSIS/Include\core_cmInstr.h **** #if defined (__thumb__) && !defined (__thumb2__)
 314:C:\DAVE-3.1.10\eclipse\/../CMSIS/Include\core_cmInstr.h **** #define __CMSIS_GCC_OUT_REG(r) "=l" (r)
 315:C:\DAVE-3.1.10\eclipse\/../CMSIS/Include\core_cmInstr.h **** #define __CMSIS_GCC_USE_REG(r) "l" (r)
 316:C:\DAVE-3.1.10\eclipse\/../CMSIS/Include\core_cmInstr.h **** #else
 317:C:\DAVE-3.1.10\eclipse\/../CMSIS/Include\core_cmInstr.h **** #define __CMSIS_GCC_OUT_REG(r) "=r" (r)
 318:C:\DAVE-3.1.10\eclipse\/../CMSIS/Include\core_cmInstr.h **** #define __CMSIS_GCC_USE_REG(r) "r" (r)
 319:C:\DAVE-3.1.10\eclipse\/../CMSIS/Include\core_cmInstr.h **** #endif
 320:C:\DAVE-3.1.10\eclipse\/../CMSIS/Include\core_cmInstr.h **** 
 321:C:\DAVE-3.1.10\eclipse\/../CMSIS/Include\core_cmInstr.h **** /** \brief  No Operation
 322:C:\DAVE-3.1.10\eclipse\/../CMSIS/Include\core_cmInstr.h **** 
 323:C:\DAVE-3.1.10\eclipse\/../CMSIS/Include\core_cmInstr.h ****     No Operation does nothing. This instruction can be used for code alignment purposes.
 324:C:\DAVE-3.1.10\eclipse\/../CMSIS/Include\core_cmInstr.h ****  */
 325:C:\DAVE-3.1.10\eclipse\/../CMSIS/Include\core_cmInstr.h **** __attribute__( ( always_inline ) ) __STATIC_INLINE void __NOP(void)
 326:C:\DAVE-3.1.10\eclipse\/../CMSIS/Include\core_cmInstr.h **** {
 327:C:\DAVE-3.1.10\eclipse\/../CMSIS/Include\core_cmInstr.h ****   __ASM volatile ("nop");
 328:C:\DAVE-3.1.10\eclipse\/../CMSIS/Include\core_cmInstr.h **** }
 329:C:\DAVE-3.1.10\eclipse\/../CMSIS/Include\core_cmInstr.h **** 
 330:C:\DAVE-3.1.10\eclipse\/../CMSIS/Include\core_cmInstr.h **** 
 331:C:\DAVE-3.1.10\eclipse\/../CMSIS/Include\core_cmInstr.h **** /** \brief  Wait For Interrupt
 332:C:\DAVE-3.1.10\eclipse\/../CMSIS/Include\core_cmInstr.h **** 
 333:C:\DAVE-3.1.10\eclipse\/../CMSIS/Include\core_cmInstr.h ****     Wait For Interrupt is a hint instruction that suspends execution
 334:C:\DAVE-3.1.10\eclipse\/../CMSIS/Include\core_cmInstr.h ****     until one of a number of events occurs.
 335:C:\DAVE-3.1.10\eclipse\/../CMSIS/Include\core_cmInstr.h ****  */
 336:C:\DAVE-3.1.10\eclipse\/../CMSIS/Include\core_cmInstr.h **** __attribute__( ( always_inline ) ) __STATIC_INLINE void __WFI(void)
 337:C:\DAVE-3.1.10\eclipse\/../CMSIS/Include\core_cmInstr.h **** {
 338:C:\DAVE-3.1.10\eclipse\/../CMSIS/Include\core_cmInstr.h ****   __ASM volatile ("wfi");
 339:C:\DAVE-3.1.10\eclipse\/../CMSIS/Include\core_cmInstr.h **** }
 340:C:\DAVE-3.1.10\eclipse\/../CMSIS/Include\core_cmInstr.h **** 
 341:C:\DAVE-3.1.10\eclipse\/../CMSIS/Include\core_cmInstr.h **** 
 342:C:\DAVE-3.1.10\eclipse\/../CMSIS/Include\core_cmInstr.h **** /** \brief  Wait For Event
 343:C:\DAVE-3.1.10\eclipse\/../CMSIS/Include\core_cmInstr.h **** 
 344:C:\DAVE-3.1.10\eclipse\/../CMSIS/Include\core_cmInstr.h ****     Wait For Event is a hint instruction that permits the processor to enter
 345:C:\DAVE-3.1.10\eclipse\/../CMSIS/Include\core_cmInstr.h ****     a low-power state until one of a number of events occurs.
 346:C:\DAVE-3.1.10\eclipse\/../CMSIS/Include\core_cmInstr.h ****  */
 347:C:\DAVE-3.1.10\eclipse\/../CMSIS/Include\core_cmInstr.h **** __attribute__( ( always_inline ) ) __STATIC_INLINE void __WFE(void)
 348:C:\DAVE-3.1.10\eclipse\/../CMSIS/Include\core_cmInstr.h **** {
 349:C:\DAVE-3.1.10\eclipse\/../CMSIS/Include\core_cmInstr.h ****   __ASM volatile ("wfe");
 350:C:\DAVE-3.1.10\eclipse\/../CMSIS/Include\core_cmInstr.h **** }
 351:C:\DAVE-3.1.10\eclipse\/../CMSIS/Include\core_cmInstr.h **** 
 352:C:\DAVE-3.1.10\eclipse\/../CMSIS/Include\core_cmInstr.h **** 
 353:C:\DAVE-3.1.10\eclipse\/../CMSIS/Include\core_cmInstr.h **** /** \brief  Send Event
 354:C:\DAVE-3.1.10\eclipse\/../CMSIS/Include\core_cmInstr.h **** 
 355:C:\DAVE-3.1.10\eclipse\/../CMSIS/Include\core_cmInstr.h ****     Send Event is a hint instruction. It causes an event to be signaled to the CPU.
 356:C:\DAVE-3.1.10\eclipse\/../CMSIS/Include\core_cmInstr.h ****  */
 357:C:\DAVE-3.1.10\eclipse\/../CMSIS/Include\core_cmInstr.h **** __attribute__( ( always_inline ) ) __STATIC_INLINE void __SEV(void)
 358:C:\DAVE-3.1.10\eclipse\/../CMSIS/Include\core_cmInstr.h **** {
 359:C:\DAVE-3.1.10\eclipse\/../CMSIS/Include\core_cmInstr.h ****   __ASM volatile ("sev");
 360:C:\DAVE-3.1.10\eclipse\/../CMSIS/Include\core_cmInstr.h **** }
 361:C:\DAVE-3.1.10\eclipse\/../CMSIS/Include\core_cmInstr.h **** 
 362:C:\DAVE-3.1.10\eclipse\/../CMSIS/Include\core_cmInstr.h **** 
 363:C:\DAVE-3.1.10\eclipse\/../CMSIS/Include\core_cmInstr.h **** /** \brief  Instruction Synchronization Barrier
 364:C:\DAVE-3.1.10\eclipse\/../CMSIS/Include\core_cmInstr.h **** 
 365:C:\DAVE-3.1.10\eclipse\/../CMSIS/Include\core_cmInstr.h ****     Instruction Synchronization Barrier flushes the pipeline in the processor,
 366:C:\DAVE-3.1.10\eclipse\/../CMSIS/Include\core_cmInstr.h ****     so that all instructions following the ISB are fetched from cache or
 367:C:\DAVE-3.1.10\eclipse\/../CMSIS/Include\core_cmInstr.h ****     memory, after the instruction has been completed.
 368:C:\DAVE-3.1.10\eclipse\/../CMSIS/Include\core_cmInstr.h ****  */
 369:C:\DAVE-3.1.10\eclipse\/../CMSIS/Include\core_cmInstr.h **** __attribute__( ( always_inline ) ) __STATIC_INLINE void __ISB(void)
 370:C:\DAVE-3.1.10\eclipse\/../CMSIS/Include\core_cmInstr.h **** {
 371:C:\DAVE-3.1.10\eclipse\/../CMSIS/Include\core_cmInstr.h ****   __ASM volatile ("isb");
 372:C:\DAVE-3.1.10\eclipse\/../CMSIS/Include\core_cmInstr.h **** }
 373:C:\DAVE-3.1.10\eclipse\/../CMSIS/Include\core_cmInstr.h **** 
 374:C:\DAVE-3.1.10\eclipse\/../CMSIS/Include\core_cmInstr.h **** 
 375:C:\DAVE-3.1.10\eclipse\/../CMSIS/Include\core_cmInstr.h **** /** \brief  Data Synchronization Barrier
 376:C:\DAVE-3.1.10\eclipse\/../CMSIS/Include\core_cmInstr.h **** 
 377:C:\DAVE-3.1.10\eclipse\/../CMSIS/Include\core_cmInstr.h ****     This function acts as a special kind of Data Memory Barrier.
 378:C:\DAVE-3.1.10\eclipse\/../CMSIS/Include\core_cmInstr.h ****     It completes when all explicit memory accesses before this instruction complete.
 379:C:\DAVE-3.1.10\eclipse\/../CMSIS/Include\core_cmInstr.h ****  */
 380:C:\DAVE-3.1.10\eclipse\/../CMSIS/Include\core_cmInstr.h **** __attribute__( ( always_inline ) ) __STATIC_INLINE void __DSB(void)
 381:C:\DAVE-3.1.10\eclipse\/../CMSIS/Include\core_cmInstr.h **** {
 382:C:\DAVE-3.1.10\eclipse\/../CMSIS/Include\core_cmInstr.h ****   __ASM volatile ("dsb");
 514              		.loc 3 382 0
 515              	@ 382 "C:\DAVE-3.1.10\eclipse\/../CMSIS/Include/core_cmInstr.h" 1
 516 003e BFF34F8F 		dsb
 517              	@ 0 "" 2
 518              		.thumb
 519              	.LBE223:
 520              	.LBE222:
 521              	.LBB224:
 522              	.LBB225:
 371:C:\DAVE-3.1.10\eclipse\/../CMSIS/Include\core_cmInstr.h ****   __ASM volatile ("isb");
 523              		.loc 3 371 0
 524              	@ 371 "C:\DAVE-3.1.10\eclipse\/../CMSIS/Include/core_cmInstr.h" 1
 525 0042 BFF36F8F 		isb
 526              	@ 0 "" 2
 527              		.thumb
 528 0046 18E0     		b	.L31
 529              	.L33:
 530              	.LBE225:
 531              	.LBE224:
 592:../Dave/Generated/src/RTOS001/SRC/rt_CMSIS.c ****         __set_CONTROL(0x02);                    // Set Privileged Thread mode & PSP
 593:../Dave/Generated/src/RTOS001/SRC/rt_CMSIS.c ****       } else {
 594:../Dave/Generated/src/RTOS001/SRC/rt_CMSIS.c ****         __set_CONTROL(0x03);                    // Set Unprivileged Thread mode & PSP
 595:../Dave/Generated/src/RTOS001/SRC/rt_CMSIS.c ****       }
 596:../Dave/Generated/src/RTOS001/SRC/rt_CMSIS.c ****       __DSB();
 597:../Dave/Generated/src/RTOS001/SRC/rt_CMSIS.c ****       __ISB();
 598:../Dave/Generated/src/RTOS001/SRC/rt_CMSIS.c ****       break;
 599:../Dave/Generated/src/RTOS001/SRC/rt_CMSIS.c ****     case 0x01:                                  // Unprivileged Thread mode & MSP
 600:../Dave/Generated/src/RTOS001/SRC/rt_CMSIS.c ****       return osErrorOS;
 601:../Dave/Generated/src/RTOS001/SRC/rt_CMSIS.c ****     case 0x02:                                  // Privileged Thread mode & PSP
 602:../Dave/Generated/src/RTOS001/SRC/rt_CMSIS.c ****       if ((os_flags & 1) == 0) {                // Unprivileged Thread mode requested
 532              		.loc 1 602 0
 533 0048 40F20004 		movw	r4, #:lower16:os_flags
 534 004c C0F20004 		movt	r4, #:upper16:os_flags
 535 0050 2478     		ldrb	r4, [r4, #0]	@ zero_extendqisi2
 536 0052 14F0010F 		tst	r4, #1
 537 0056 10D1     		bne	.L31
 538              	.LBB226:
 539              	.LBB227:
 369:C:\DAVE-3.1.10\eclipse\/../CMSIS/Include\core_cmFunc.h ****   __ASM volatile ("MSR control, %0" : : "r" (control) : "memory");
 540              		.loc 2 369 0
 541 0058 4FF00304 		mov	r4, #3
 542              	@ 369 "C:\DAVE-3.1.10\eclipse\/../CMSIS/Include/core_cmFunc.h" 1
 543 005c 84F31488 		MSR control, r4
 544              	@ 0 "" 2
 545              		.thumb
 546              	.LBE227:
 547              	.LBE226:
 548              	.LBB228:
 549              	.LBB229:
 550              		.loc 3 382 0
 551              	@ 382 "C:\DAVE-3.1.10\eclipse\/../CMSIS/Include/core_cmInstr.h" 1
 552 0060 BFF34F8F 		dsb
 553              	@ 0 "" 2
 554              		.thumb
 555              	.LBE229:
 556              	.LBE228:
 557              	.LBB230:
 558              	.LBB231:
 371:C:\DAVE-3.1.10\eclipse\/../CMSIS/Include\core_cmInstr.h ****   __ASM volatile ("isb");
 559              		.loc 3 371 0
 560              	@ 371 "C:\DAVE-3.1.10\eclipse\/../CMSIS/Include/core_cmInstr.h" 1
 561 0064 BFF36F8F 		isb
 562              	@ 0 "" 2
 563              		.thumb
 564 0068 07E0     		b	.L31
 565              	.L34:
 566              	.LBE231:
 567              	.LBE230:
 603:../Dave/Generated/src/RTOS001/SRC/rt_CMSIS.c ****         __set_CONTROL(0x03);                    // Set Unprivileged Thread mode & PSP
 604:../Dave/Generated/src/RTOS001/SRC/rt_CMSIS.c ****         __DSB();
 605:../Dave/Generated/src/RTOS001/SRC/rt_CMSIS.c ****         __ISB();
 606:../Dave/Generated/src/RTOS001/SRC/rt_CMSIS.c ****       }
 607:../Dave/Generated/src/RTOS001/SRC/rt_CMSIS.c ****       break;
 608:../Dave/Generated/src/RTOS001/SRC/rt_CMSIS.c ****     case 0x03:                                  // Unprivileged Thread mode & PSP
 609:../Dave/Generated/src/RTOS001/SRC/rt_CMSIS.c ****       if  (os_flags & 1) return osErrorOS;      // Privileged Thread mode requested
 568              		.loc 1 609 0
 569 006a 40F20004 		movw	r4, #:lower16:os_flags
 570 006e C0F20004 		movt	r4, #:upper16:os_flags
 571 0072 2478     		ldrb	r4, [r4, #0]	@ zero_extendqisi2
 572 0074 14F0010F 		tst	r4, #1
 573 0078 09D1     		bne	.L40
 574              	.L31:
 575              	.LBB232:
 576              	.LBB233:
 489:../Dave/Generated/src/RTOS001/SRC/rt_CMSIS.c **** SVC_0_1(svcKernelStart,      osStatus, RET_osStatus)
 577              		.loc 1 489 0
 578              	@ 489 "../Dave/Generated/src/RTOS001/SRC/rt_CMSIS.c" 1
 579 007a DFF81CC0 		ldr r12,=svcKernelStart
 580 007e 00DF     		svc 0
 581              	@ 0 "" 2
 582              		.thumb
 583 0080 07E0     		b	.L30
 584              	.L38:
 585              	.LBE233:
 586              	.LBE232:
 587:../Dave/Generated/src/RTOS001/SRC/rt_CMSIS.c ****   if (__get_IPSR() != 0) return osErrorISR;     // Not allowed in ISR
 587              		.loc 1 587 0
 588 0082 4FF08200 		mov	r0, #130
 589 0086 04E0     		b	.L30
 590              	.L39:
 600:../Dave/Generated/src/RTOS001/SRC/rt_CMSIS.c ****       return osErrorOS;
 591              		.loc 1 600 0
 592 0088 4FF0FF00 		mov	r0, #255
 593 008c 01E0     		b	.L30
 594              	.L40:
 595              		.loc 1 609 0
 596 008e 4FF0FF00 		mov	r0, #255
 597              	.L30:
 610:../Dave/Generated/src/RTOS001/SRC/rt_CMSIS.c ****       break;
 611:../Dave/Generated/src/RTOS001/SRC/rt_CMSIS.c ****   }
 612:../Dave/Generated/src/RTOS001/SRC/rt_CMSIS.c ****   return __svcKernelStart();
 613:../Dave/Generated/src/RTOS001/SRC/rt_CMSIS.c **** }
 598              		.loc 1 613 0
 599 0092 09B0     		add	sp, sp, #36
 600 0094 30BD     		pop	{r4, r5, pc}
 601              		.cfi_endproc
 602              	.LFE113:
 604 0096 0000     		.section	.text.osKernelRunning,"ax",%progbits
 605              		.align	2
 606              		.global	osKernelRunning
 607              		.thumb
 608              		.thumb_func
 610              	osKernelRunning:
 611              	.LFB114:
 614:../Dave/Generated/src/RTOS001/SRC/rt_CMSIS.c **** 
 615:../Dave/Generated/src/RTOS001/SRC/rt_CMSIS.c **** /// Check if the RTOS kernel is already started
 616:../Dave/Generated/src/RTOS001/SRC/rt_CMSIS.c **** int32_t osKernelRunning (void) {
 612              		.loc 1 616 0
 613              		.cfi_startproc
 614              		@ args = 0, pretend = 0, frame = 0
 615              		@ frame_needed = 0, uses_anonymous_args = 0
 616 0000 10B5     		push	{r4, lr}
 617              	.LCFI6:
 618              		.cfi_def_cfa_offset 8
 619              		.cfi_offset 4, -8
 620              		.cfi_offset 14, -4
 621              	.LBB234:
 622              	.LBB235:
 383:C:\DAVE-3.1.10\eclipse\/../CMSIS/Include\core_cmFunc.h ****   __ASM volatile ("MRS %0, ipsr" : "=r" (result) );
 623              		.loc 2 383 0
 624              	@ 383 "C:\DAVE-3.1.10\eclipse\/../CMSIS/Include/core_cmFunc.h" 1
 625 0002 EFF30584 		MRS r4, ipsr
 626              	@ 0 "" 2
 627              		.thumb
 628              	.LBE235:
 629              	.LBE234:
 617:../Dave/Generated/src/RTOS001/SRC/rt_CMSIS.c ****   if ((__get_IPSR() != 0) || ((__get_CONTROL() & 1) == 0)) {
 630              		.loc 1 617 0
 631 0006 24B9     		cbnz	r4, .L42
 632              	.LBB236:
 633              	.LBB237:
 356:C:\DAVE-3.1.10\eclipse\/../CMSIS/Include\core_cmFunc.h ****   __ASM volatile ("MRS %0, control" : "=r" (result) );
 634              		.loc 2 356 0
 635              	@ 356 "C:\DAVE-3.1.10\eclipse\/../CMSIS/Include/core_cmFunc.h" 1
 636 0008 EFF31484 		MRS r4, control
 637              	@ 0 "" 2
 638              		.thumb
 639              	.LBE237:
 640              	.LBE236:
 641              		.loc 1 617 0
 642 000c 14F0010F 		tst	r4, #1
 643 0010 05D1     		bne	.L43
 644              	.L42:
 618:../Dave/Generated/src/RTOS001/SRC/rt_CMSIS.c ****     // in ISR or Privileged
 619:../Dave/Generated/src/RTOS001/SRC/rt_CMSIS.c ****     return os_running;
 645              		.loc 1 619 0
 646 0012 40F20003 		movw	r3, #:lower16:os_running
 647 0016 C0F20003 		movt	r3, #:upper16:os_running
 648 001a 1878     		ldrb	r0, [r3, #0]	@ zero_extendqisi2
 649 001c 10BD     		pop	{r4, pc}
 650              	.L43:
 651              	.LBB238:
 652              	.LBB239:
 490:../Dave/Generated/src/RTOS001/SRC/rt_CMSIS.c **** SVC_0_1(svcKernelRunning,    int32_t,  RET_int32_t)
 653              		.loc 1 490 0
 654              	@ 490 "../Dave/Generated/src/RTOS001/SRC/rt_CMSIS.c" 1
 655 001e DFF808C0 		ldr r12,=svcKernelRunning
 656 0022 00DF     		svc 0
 657              	@ 0 "" 2
 658              		.thumb
 659              	.LBE239:
 660              	.LBE238:
 620:../Dave/Generated/src/RTOS001/SRC/rt_CMSIS.c ****   } else {
 621:../Dave/Generated/src/RTOS001/SRC/rt_CMSIS.c ****     return __svcKernelRunning();
 622:../Dave/Generated/src/RTOS001/SRC/rt_CMSIS.c ****   }
 623:../Dave/Generated/src/RTOS001/SRC/rt_CMSIS.c **** }
 661              		.loc 1 623 0
 662 0024 10BD     		pop	{r4, pc}
 663              		.cfi_endproc
 664              	.LFE114:
 666 0026 0000     		.section	.text.osKernelSysTick,"ax",%progbits
 667              		.align	2
 668              		.global	osKernelSysTick
 669              		.thumb
 670              		.thumb_func
 672              	osKernelSysTick:
 673              	.LFB115:
 624:../Dave/Generated/src/RTOS001/SRC/rt_CMSIS.c **** 
 625:../Dave/Generated/src/RTOS001/SRC/rt_CMSIS.c **** /// Get the RTOS kernel system timer counter
 626:../Dave/Generated/src/RTOS001/SRC/rt_CMSIS.c **** uint32_t osKernelSysTick (void) {
 674              		.loc 1 626 0
 675              		.cfi_startproc
 676              		@ args = 0, pretend = 0, frame = 0
 677              		@ frame_needed = 0, uses_anonymous_args = 0
 678 0000 10B5     		push	{r4, lr}
 679              	.LCFI7:
 680              		.cfi_def_cfa_offset 8
 681              		.cfi_offset 4, -8
 682              		.cfi_offset 14, -4
 683              	.LBB240:
 684              	.LBB241:
 383:C:\DAVE-3.1.10\eclipse\/../CMSIS/Include\core_cmFunc.h ****   __ASM volatile ("MRS %0, ipsr" : "=r" (result) );
 685              		.loc 2 383 0
 686              	@ 383 "C:\DAVE-3.1.10\eclipse\/../CMSIS/Include/core_cmFunc.h" 1
 687 0002 EFF30584 		MRS r4, ipsr
 688              	@ 0 "" 2
 689              		.thumb
 690              	.LBE241:
 691              	.LBE240:
 627:../Dave/Generated/src/RTOS001/SRC/rt_CMSIS.c ****   if (__get_IPSR() != 0) return 0;              // Not allowed in ISR
 692              		.loc 1 627 0
 693 0006 1CB9     		cbnz	r4, .L47
 694              	.LBB242:
 695              	.LBB243:
 491:../Dave/Generated/src/RTOS001/SRC/rt_CMSIS.c **** SVC_0_1(svcKernelSysTick,    uint32_t, RET_uint32_t)
 696              		.loc 1 491 0
 697              	@ 491 "../Dave/Generated/src/RTOS001/SRC/rt_CMSIS.c" 1
 698 0008 DFF80CC0 		ldr r12,=svcKernelSysTick
 699 000c 00DF     		svc 0
 700              	@ 0 "" 2
 701              		.thumb
 702              	.LBE243:
 703              	.LBE242:
 628:../Dave/Generated/src/RTOS001/SRC/rt_CMSIS.c ****   return __svcKernelSysTick();
 704              		.loc 1 628 0
 705 000e 10BD     		pop	{r4, pc}
 706              	.L47:
 627:../Dave/Generated/src/RTOS001/SRC/rt_CMSIS.c ****   if (__get_IPSR() != 0) return 0;              // Not allowed in ISR
 707              		.loc 1 627 0
 708 0010 4FF00000 		mov	r0, #0
 629:../Dave/Generated/src/RTOS001/SRC/rt_CMSIS.c **** }
 709              		.loc 1 629 0
 710 0014 10BD     		pop	{r4, pc}
 711              		.cfi_endproc
 712              	.LFE115:
 714 0016 0000     		.section	.text.svcThreadCreate,"ax",%progbits
 715              		.align	2
 716              		.global	svcThreadCreate
 717              		.thumb
 718              		.thumb_func
 720              	svcThreadCreate:
 721              	.LFB123:
 630:../Dave/Generated/src/RTOS001/SRC/rt_CMSIS.c **** 
 631:../Dave/Generated/src/RTOS001/SRC/rt_CMSIS.c **** 
 632:../Dave/Generated/src/RTOS001/SRC/rt_CMSIS.c **** // ==== Thread Management ====
 633:../Dave/Generated/src/RTOS001/SRC/rt_CMSIS.c **** 
 634:../Dave/Generated/src/RTOS001/SRC/rt_CMSIS.c **** /// Set Thread Error (for Create functions which return IDs)
 635:../Dave/Generated/src/RTOS001/SRC/rt_CMSIS.c **** static void sysThreadError (osStatus status) {
 636:../Dave/Generated/src/RTOS001/SRC/rt_CMSIS.c ****   // To Do
 637:../Dave/Generated/src/RTOS001/SRC/rt_CMSIS.c **** }
 638:../Dave/Generated/src/RTOS001/SRC/rt_CMSIS.c **** 
 639:../Dave/Generated/src/RTOS001/SRC/rt_CMSIS.c **** __NO_RETURN void osThreadExit (void);
 640:../Dave/Generated/src/RTOS001/SRC/rt_CMSIS.c **** 
 641:../Dave/Generated/src/RTOS001/SRC/rt_CMSIS.c **** // Thread Service Calls declarations
 642:../Dave/Generated/src/RTOS001/SRC/rt_CMSIS.c **** SVC_2_1(svcThreadCreate,      osThreadId, const osThreadDef_t *, void *,     RET_pointer)
 643:../Dave/Generated/src/RTOS001/SRC/rt_CMSIS.c **** SVC_0_1(svcThreadGetId,       osThreadId,                                    RET_pointer)
 644:../Dave/Generated/src/RTOS001/SRC/rt_CMSIS.c **** SVC_1_1(svcThreadTerminate,   osStatus,         osThreadId,                  RET_osStatus)
 645:../Dave/Generated/src/RTOS001/SRC/rt_CMSIS.c **** SVC_0_1(svcThreadYield,       osStatus,                                      RET_osStatus)
 646:../Dave/Generated/src/RTOS001/SRC/rt_CMSIS.c **** SVC_2_1(svcThreadSetPriority, osStatus,         osThreadId,      osPriority, RET_osStatus)
 647:../Dave/Generated/src/RTOS001/SRC/rt_CMSIS.c **** SVC_1_1(svcThreadGetPriority, osPriority,       osThreadId,                  RET_osPriority)
 648:../Dave/Generated/src/RTOS001/SRC/rt_CMSIS.c **** 
 649:../Dave/Generated/src/RTOS001/SRC/rt_CMSIS.c **** // Thread Service Calls
 650:../Dave/Generated/src/RTOS001/SRC/rt_CMSIS.c **** 
 651:../Dave/Generated/src/RTOS001/SRC/rt_CMSIS.c **** /// Create a thread and add it to Active Threads and set it to state READY
 652:../Dave/Generated/src/RTOS001/SRC/rt_CMSIS.c **** osThreadId svcThreadCreate (const osThreadDef_t *thread_def, void *argument) {
 722              		.loc 1 652 0
 723              		.cfi_startproc
 724              		@ args = 0, pretend = 0, frame = 0
 725              		@ frame_needed = 0, uses_anonymous_args = 0
 726 0000 70B5     		push	{r4, r5, r6, lr}
 727              	.LCFI8:
 728              		.cfi_def_cfa_offset 16
 729              		.cfi_offset 4, -16
 730              		.cfi_offset 5, -12
 731              		.cfi_offset 6, -8
 732              		.cfi_offset 14, -4
 733 0002 0E46     		mov	r6, r1
 653:../Dave/Generated/src/RTOS001/SRC/rt_CMSIS.c ****   P_TCB  ptcb;
 654:../Dave/Generated/src/RTOS001/SRC/rt_CMSIS.c ****   OS_TID tsk;
 655:../Dave/Generated/src/RTOS001/SRC/rt_CMSIS.c ****   void  *stk;
 656:../Dave/Generated/src/RTOS001/SRC/rt_CMSIS.c **** 
 657:../Dave/Generated/src/RTOS001/SRC/rt_CMSIS.c ****   if ((thread_def == NULL) ||
 734              		.loc 1 657 0
 735 0004 0446     		mov	r4, r0
 736 0006 0028     		cmp	r0, #0
 737 0008 2FD0     		beq	.L54
 658:../Dave/Generated/src/RTOS001/SRC/rt_CMSIS.c ****       (thread_def->pthread == NULL) ||
 738              		.loc 1 658 0 discriminator 1
 739 000a 0068     		ldr	r0, [r0, #0]
 657:../Dave/Generated/src/RTOS001/SRC/rt_CMSIS.c ****   if ((thread_def == NULL) ||
 740              		.loc 1 657 0 discriminator 1
 741 000c 0028     		cmp	r0, #0
 742 000e 2FD0     		beq	.L55
 659:../Dave/Generated/src/RTOS001/SRC/rt_CMSIS.c ****       (thread_def->tpriority < osPriorityIdle) ||
 743              		.loc 1 659 0
 744 0010 A288     		ldrh	r2, [r4, #4]
 658:../Dave/Generated/src/RTOS001/SRC/rt_CMSIS.c ****       (thread_def->pthread == NULL) ||
 745              		.loc 1 658 0
 746 0012 15B2     		sxth	r5, r2
 747 0014 15F1030F 		cmn	r5, #3
 748 0018 2DDB     		blt	.L56
 749              		.loc 1 659 0
 750 001a 032D     		cmp	r5, #3
 751 001c 2EDC     		bgt	.L57
 660:../Dave/Generated/src/RTOS001/SRC/rt_CMSIS.c ****       (thread_def->tpriority > osPriorityRealtime)) {
 661:../Dave/Generated/src/RTOS001/SRC/rt_CMSIS.c ****     sysThreadError(osErrorParameter); 
 662:../Dave/Generated/src/RTOS001/SRC/rt_CMSIS.c ****     return NULL; 
 663:../Dave/Generated/src/RTOS001/SRC/rt_CMSIS.c ****   }
 664:../Dave/Generated/src/RTOS001/SRC/rt_CMSIS.c **** 
 665:../Dave/Generated/src/RTOS001/SRC/rt_CMSIS.c ****   if (thread_def->stacksize != 0) {             // Custom stack size
 752              		.loc 1 665 0
 753 001e E168     		ldr	r1, [r4, #12]
 754 0020 0029     		cmp	r1, #0
 755 0022 44D0     		beq	.L50
 666:../Dave/Generated/src/RTOS001/SRC/rt_CMSIS.c ****     stk = rt_alloc_mem(                         // Allocate stack
 756              		.loc 1 666 0
 757 0024 40F20000 		movw	r0, #:lower16:os_stack_mem
 758 0028 C0F20000 		movt	r0, #:upper16:os_stack_mem
 759 002c FFF7FEFF 		bl	rt_alloc_mem
 667:../Dave/Generated/src/RTOS001/SRC/rt_CMSIS.c ****       os_stack_mem,
 668:../Dave/Generated/src/RTOS001/SRC/rt_CMSIS.c ****       thread_def->stacksize
 669:../Dave/Generated/src/RTOS001/SRC/rt_CMSIS.c ****     );
 670:../Dave/Generated/src/RTOS001/SRC/rt_CMSIS.c ****     if (stk == NULL) { 
 760              		.loc 1 670 0
 761 0030 0546     		mov	r5, r0
 762 0032 0028     		cmp	r0, #0
 763 0034 2BD1     		bne	.L60
 764 0036 24E0     		b	.L58
 765              	.L52:
 671:../Dave/Generated/src/RTOS001/SRC/rt_CMSIS.c ****       sysThreadError(osErrorNoMemory);          // Out of memory
 672:../Dave/Generated/src/RTOS001/SRC/rt_CMSIS.c ****       return NULL;
 673:../Dave/Generated/src/RTOS001/SRC/rt_CMSIS.c ****     }
 674:../Dave/Generated/src/RTOS001/SRC/rt_CMSIS.c ****   } else {                                      // Default stack size
 675:../Dave/Generated/src/RTOS001/SRC/rt_CMSIS.c ****     stk = NULL;
 676:../Dave/Generated/src/RTOS001/SRC/rt_CMSIS.c ****   }
 677:../Dave/Generated/src/RTOS001/SRC/rt_CMSIS.c **** 
 678:../Dave/Generated/src/RTOS001/SRC/rt_CMSIS.c ****   tsk = rt_tsk_create(                          // Create task
 679:../Dave/Generated/src/RTOS001/SRC/rt_CMSIS.c ****     (FUNCP)thread_def->pthread,                 // Task function pointer
 680:../Dave/Generated/src/RTOS001/SRC/rt_CMSIS.c ****     (thread_def->tpriority-osPriorityIdle+1) |  // Task priority
 681:../Dave/Generated/src/RTOS001/SRC/rt_CMSIS.c ****     (thread_def->stacksize << 8),               // Task stack size in bytes
 682:../Dave/Generated/src/RTOS001/SRC/rt_CMSIS.c ****     stk,                                        // Pointer to task's stack
 683:../Dave/Generated/src/RTOS001/SRC/rt_CMSIS.c ****     argument                                    // Argument to the task
 684:../Dave/Generated/src/RTOS001/SRC/rt_CMSIS.c ****   );
 685:../Dave/Generated/src/RTOS001/SRC/rt_CMSIS.c **** 
 686:../Dave/Generated/src/RTOS001/SRC/rt_CMSIS.c ****   if (tsk == 0) {                               // Invalid task ID
 687:../Dave/Generated/src/RTOS001/SRC/rt_CMSIS.c ****     if (stk != NULL) {
 688:../Dave/Generated/src/RTOS001/SRC/rt_CMSIS.c ****       rt_free_mem(os_stack_mem, stk);           // Free allocated stack
 766              		.loc 1 688 0
 767 0038 40F20000 		movw	r0, #:lower16:os_stack_mem
 768 003c C0F20000 		movt	r0, #:upper16:os_stack_mem
 769 0040 2946     		mov	r1, r5
 770 0042 FFF7FEFF 		bl	rt_free_mem
 689:../Dave/Generated/src/RTOS001/SRC/rt_CMSIS.c ****     }
 690:../Dave/Generated/src/RTOS001/SRC/rt_CMSIS.c ****     sysThreadError(osErrorNoMemory);            // Create task failed (Out of memory)
 691:../Dave/Generated/src/RTOS001/SRC/rt_CMSIS.c ****     return NULL;
 771              		.loc 1 691 0
 772 0046 4FF00000 		mov	r0, #0
 773 004a 70BD     		pop	{r4, r5, r6, pc}
 774              	.L53:
 692:../Dave/Generated/src/RTOS001/SRC/rt_CMSIS.c ****   }
 693:../Dave/Generated/src/RTOS001/SRC/rt_CMSIS.c **** 
 694:../Dave/Generated/src/RTOS001/SRC/rt_CMSIS.c ****   ptcb = (P_TCB)os_active_TCB[tsk - 1];         // TCB pointer
 775              		.loc 1 694 0
 776 004c 40F20003 		movw	r3, #:lower16:os_active_TCB
 777 0050 C0F20003 		movt	r3, #:upper16:os_active_TCB
 778 0054 02F1FF32 		add	r2, r2, #-1
 779 0058 53F82200 		ldr	r0, [r3, r2, lsl #2]
 695:../Dave/Generated/src/RTOS001/SRC/rt_CMSIS.c **** 
 696:../Dave/Generated/src/RTOS001/SRC/rt_CMSIS.c ****   *((uint32_t *)ptcb->tsk_stack + 13) = (uint32_t)osThreadExit;
 780              		.loc 1 696 0
 781 005c 836A     		ldr	r3, [r0, #40]
 782 005e 40F20002 		movw	r2, #:lower16:osThreadExit
 783 0062 C0F20002 		movt	r2, #:upper16:osThreadExit
 784 0066 5A63     		str	r2, [r3, #52]
 697:../Dave/Generated/src/RTOS001/SRC/rt_CMSIS.c **** 
 698:../Dave/Generated/src/RTOS001/SRC/rt_CMSIS.c ****   return ptcb;
 785              		.loc 1 698 0
 786 0068 70BD     		pop	{r4, r5, r6, pc}
 787              	.L54:
 662:../Dave/Generated/src/RTOS001/SRC/rt_CMSIS.c ****     return NULL; 
 788              		.loc 1 662 0
 789 006a 4FF00000 		mov	r0, #0
 790 006e 70BD     		pop	{r4, r5, r6, pc}
 791              	.L55:
 792 0070 4FF00000 		mov	r0, #0
 793 0074 70BD     		pop	{r4, r5, r6, pc}
 794              	.L56:
 795 0076 4FF00000 		mov	r0, #0
 796 007a 70BD     		pop	{r4, r5, r6, pc}
 797              	.L57:
 798 007c 4FF00000 		mov	r0, #0
 799 0080 70BD     		pop	{r4, r5, r6, pc}
 800              	.L58:
 672:../Dave/Generated/src/RTOS001/SRC/rt_CMSIS.c ****       return NULL;
 801              		.loc 1 672 0
 802 0082 4FF00000 		mov	r0, #0
 803 0086 70BD     		pop	{r4, r5, r6, pc}
 804              	.L59:
 691:../Dave/Generated/src/RTOS001/SRC/rt_CMSIS.c ****     return NULL;
 805              		.loc 1 691 0
 806 0088 4FF00000 		mov	r0, #0
 807 008c 70BD     		pop	{r4, r5, r6, pc}
 808              	.L60:
 680:../Dave/Generated/src/RTOS001/SRC/rt_CMSIS.c ****     (thread_def->tpriority-osPriorityIdle+1) |  // Task priority
 809              		.loc 1 680 0
 810 008e B4F90430 		ldrsh	r3, [r4, #4]
 811 0092 03F10403 		add	r3, r3, #4
 681:../Dave/Generated/src/RTOS001/SRC/rt_CMSIS.c ****     (thread_def->stacksize << 8),               // Task stack size in bytes
 812              		.loc 1 681 0
 813 0096 E168     		ldr	r1, [r4, #12]
 678:../Dave/Generated/src/RTOS001/SRC/rt_CMSIS.c ****   tsk = rt_tsk_create(                          // Create task
 814              		.loc 1 678 0
 815 0098 2068     		ldr	r0, [r4, #0]
 816 009a 43EA0121 		orr	r1, r3, r1, lsl #8
 817 009e 2A46     		mov	r2, r5
 818 00a0 3346     		mov	r3, r6
 819 00a2 FFF7FEFF 		bl	rt_tsk_create
 686:../Dave/Generated/src/RTOS001/SRC/rt_CMSIS.c ****   if (tsk == 0) {                               // Invalid task ID
 820              		.loc 1 686 0
 821 00a6 0246     		mov	r2, r0
 822 00a8 0028     		cmp	r0, #0
 823 00aa CFD1     		bne	.L53
 824 00ac C4E7     		b	.L52
 825              	.L50:
 680:../Dave/Generated/src/RTOS001/SRC/rt_CMSIS.c ****     (thread_def->tpriority-osPriorityIdle+1) |  // Task priority
 826              		.loc 1 680 0
 827 00ae 11B2     		sxth	r1, r2
 678:../Dave/Generated/src/RTOS001/SRC/rt_CMSIS.c ****   tsk = rt_tsk_create(                          // Create task
 828              		.loc 1 678 0
 829 00b0 01F10401 		add	r1, r1, #4
 830 00b4 4FF00002 		mov	r2, #0
 831 00b8 3346     		mov	r3, r6
 832 00ba FFF7FEFF 		bl	rt_tsk_create
 686:../Dave/Generated/src/RTOS001/SRC/rt_CMSIS.c ****   if (tsk == 0) {                               // Invalid task ID
 833              		.loc 1 686 0
 834 00be 0246     		mov	r2, r0
 835 00c0 0028     		cmp	r0, #0
 836 00c2 C3D1     		bne	.L53
 837 00c4 E0E7     		b	.L59
 838              		.cfi_endproc
 839              	.LFE123:
 841 00c6 00BF     		.section	.text.svcThreadGetId,"ax",%progbits
 842              		.align	2
 843              		.global	svcThreadGetId
 844              		.thumb
 845              		.thumb_func
 847              	svcThreadGetId:
 848              	.LFB124:
 699:../Dave/Generated/src/RTOS001/SRC/rt_CMSIS.c **** }
 700:../Dave/Generated/src/RTOS001/SRC/rt_CMSIS.c **** 
 701:../Dave/Generated/src/RTOS001/SRC/rt_CMSIS.c **** /// Return the thread ID of the current running thread
 702:../Dave/Generated/src/RTOS001/SRC/rt_CMSIS.c **** osThreadId svcThreadGetId (void) {
 849              		.loc 1 702 0
 850              		.cfi_startproc
 851              		@ args = 0, pretend = 0, frame = 0
 852              		@ frame_needed = 0, uses_anonymous_args = 0
 853 0000 08B5     		push	{r3, lr}
 854              	.LCFI9:
 855              		.cfi_def_cfa_offset 8
 856              		.cfi_offset 3, -8
 857              		.cfi_offset 14, -4
 703:../Dave/Generated/src/RTOS001/SRC/rt_CMSIS.c ****   OS_TID tsk;
 704:../Dave/Generated/src/RTOS001/SRC/rt_CMSIS.c **** 
 705:../Dave/Generated/src/RTOS001/SRC/rt_CMSIS.c ****   tsk = rt_tsk_self();
 858              		.loc 1 705 0
 859 0002 FFF7FEFF 		bl	rt_tsk_self
 706:../Dave/Generated/src/RTOS001/SRC/rt_CMSIS.c ****   if (tsk == 0) return NULL;
 860              		.loc 1 706 0
 861 0006 40B1     		cbz	r0, .L64
 707:../Dave/Generated/src/RTOS001/SRC/rt_CMSIS.c ****   return (P_TCB)os_active_TCB[tsk - 1];
 862              		.loc 1 707 0
 863 0008 40F20003 		movw	r3, #:lower16:os_active_TCB
 864 000c C0F20003 		movt	r3, #:upper16:os_active_TCB
 865 0010 00F1FF32 		add	r2, r0, #-1
 866 0014 53F82200 		ldr	r0, [r3, r2, lsl #2]
 867 0018 08BD     		pop	{r3, pc}
 868              	.L64:
 706:../Dave/Generated/src/RTOS001/SRC/rt_CMSIS.c ****   if (tsk == 0) return NULL;
 869              		.loc 1 706 0
 870 001a 4FF00000 		mov	r0, #0
 708:../Dave/Generated/src/RTOS001/SRC/rt_CMSIS.c **** }
 871              		.loc 1 708 0
 872 001e 08BD     		pop	{r3, pc}
 873              		.cfi_endproc
 874              	.LFE124:
 876              		.section	.text.svcThreadTerminate,"ax",%progbits
 877              		.align	2
 878              		.global	svcThreadTerminate
 879              		.thumb
 880              		.thumb_func
 882              	svcThreadTerminate:
 883              	.LFB125:
 709:../Dave/Generated/src/RTOS001/SRC/rt_CMSIS.c **** 
 710:../Dave/Generated/src/RTOS001/SRC/rt_CMSIS.c **** /// Terminate execution of a thread and remove it from ActiveThreads
 711:../Dave/Generated/src/RTOS001/SRC/rt_CMSIS.c **** osStatus svcThreadTerminate (osThreadId thread_id) {
 884              		.loc 1 711 0
 885              		.cfi_startproc
 886              		@ args = 0, pretend = 0, frame = 0
 887              		@ frame_needed = 0, uses_anonymous_args = 0
 888 0000 10B5     		push	{r4, lr}
 889              	.LCFI10:
 890              		.cfi_def_cfa_offset 8
 891              		.cfi_offset 4, -8
 892              		.cfi_offset 14, -4
 712:../Dave/Generated/src/RTOS001/SRC/rt_CMSIS.c ****   OS_RESULT res;
 713:../Dave/Generated/src/RTOS001/SRC/rt_CMSIS.c ****   P_TCB     ptcb;
 714:../Dave/Generated/src/RTOS001/SRC/rt_CMSIS.c ****   void     *stk;
 715:../Dave/Generated/src/RTOS001/SRC/rt_CMSIS.c **** 
 716:../Dave/Generated/src/RTOS001/SRC/rt_CMSIS.c ****   ptcb = rt_tid2ptcb(thread_id);                // Get TCB pointer
 893              		.loc 1 716 0
 894 0002 FFF7FEFF 		bl	rt_tid2ptcb
 717:../Dave/Generated/src/RTOS001/SRC/rt_CMSIS.c ****   if (ptcb == NULL) return osErrorParameter;
 895              		.loc 1 717 0
 896 0006 0346     		mov	r3, r0
 897 0008 A8B1     		cbz	r0, .L68
 718:../Dave/Generated/src/RTOS001/SRC/rt_CMSIS.c **** 
 719:../Dave/Generated/src/RTOS001/SRC/rt_CMSIS.c ****   stk = ptcb->priv_stack ? ptcb->stack : NULL;  // Private stack
 898              		.loc 1 719 0
 899 000a C28C     		ldrh	r2, [r0, #38]
 900 000c 0AB1     		cbz	r2, .L69
 901              		.loc 1 719 0 is_stmt 0 discriminator 1
 902 000e C46A     		ldr	r4, [r0, #44]
 903 0010 01E0     		b	.L67
 904              	.L69:
 905              		.loc 1 719 0
 906 0012 4FF00004 		mov	r4, #0
 907              	.L67:
 720:../Dave/Generated/src/RTOS001/SRC/rt_CMSIS.c **** 
 721:../Dave/Generated/src/RTOS001/SRC/rt_CMSIS.c ****   res = rt_tsk_delete(ptcb->task_id);           // Delete task
 908              		.loc 1 721 0 is_stmt 1 discriminator 3
 909 0016 D878     		ldrb	r0, [r3, #3]	@ zero_extendqisi2
 910 0018 FFF7FEFF 		bl	rt_tsk_delete
 722:../Dave/Generated/src/RTOS001/SRC/rt_CMSIS.c **** 
 723:../Dave/Generated/src/RTOS001/SRC/rt_CMSIS.c ****   if (res == OS_R_NOK) return osErrorResource;  // Delete task failed
 911              		.loc 1 723 0 discriminator 3
 912 001c FF28     		cmp	r0, #255
 913 001e 0DD0     		beq	.L70
 724:../Dave/Generated/src/RTOS001/SRC/rt_CMSIS.c **** 
 725:../Dave/Generated/src/RTOS001/SRC/rt_CMSIS.c ****   if (stk != NULL) {                            
 914              		.loc 1 725 0
 915 0020 7CB1     		cbz	r4, .L71
 726:../Dave/Generated/src/RTOS001/SRC/rt_CMSIS.c ****     rt_free_mem(os_stack_mem, stk);             // Free private stack
 916              		.loc 1 726 0
 917 0022 40F20000 		movw	r0, #:lower16:os_stack_mem
 918 0026 C0F20000 		movt	r0, #:upper16:os_stack_mem
 919 002a 2146     		mov	r1, r4
 920 002c FFF7FEFF 		bl	rt_free_mem
 727:../Dave/Generated/src/RTOS001/SRC/rt_CMSIS.c ****   }
 728:../Dave/Generated/src/RTOS001/SRC/rt_CMSIS.c **** 
 729:../Dave/Generated/src/RTOS001/SRC/rt_CMSIS.c ****   return osOK;
 921              		.loc 1 729 0
 922 0030 4FF00000 		mov	r0, #0
 923 0034 10BD     		pop	{r4, pc}
 924              	.L68:
 717:../Dave/Generated/src/RTOS001/SRC/rt_CMSIS.c ****   if (ptcb == NULL) return osErrorParameter;
 925              		.loc 1 717 0
 926 0036 4FF08000 		mov	r0, #128
 927 003a 10BD     		pop	{r4, pc}
 928              	.L70:
 723:../Dave/Generated/src/RTOS001/SRC/rt_CMSIS.c ****   if (res == OS_R_NOK) return osErrorResource;  // Delete task failed
 929              		.loc 1 723 0
 930 003c 4FF08100 		mov	r0, #129
 931 0040 10BD     		pop	{r4, pc}
 932              	.L71:
 933              		.loc 1 729 0
 934 0042 4FF00000 		mov	r0, #0
 730:../Dave/Generated/src/RTOS001/SRC/rt_CMSIS.c **** }
 935              		.loc 1 730 0
 936 0046 10BD     		pop	{r4, pc}
 937              		.cfi_endproc
 938              	.LFE125:
 940              		.section	.text.svcThreadYield,"ax",%progbits
 941              		.align	2
 942              		.global	svcThreadYield
 943              		.thumb
 944              		.thumb_func
 946              	svcThreadYield:
 947              	.LFB126:
 731:../Dave/Generated/src/RTOS001/SRC/rt_CMSIS.c **** 
 732:../Dave/Generated/src/RTOS001/SRC/rt_CMSIS.c **** /// Pass control to next thread that is in state READY
 733:../Dave/Generated/src/RTOS001/SRC/rt_CMSIS.c **** osStatus svcThreadYield (void) {
 948              		.loc 1 733 0
 949              		.cfi_startproc
 950              		@ args = 0, pretend = 0, frame = 0
 951              		@ frame_needed = 0, uses_anonymous_args = 0
 952 0000 08B5     		push	{r3, lr}
 953              	.LCFI11:
 954              		.cfi_def_cfa_offset 8
 955              		.cfi_offset 3, -8
 956              		.cfi_offset 14, -4
 734:../Dave/Generated/src/RTOS001/SRC/rt_CMSIS.c ****   rt_tsk_pass();                                // Pass control to next task
 957              		.loc 1 734 0
 958 0002 FFF7FEFF 		bl	rt_tsk_pass
 735:../Dave/Generated/src/RTOS001/SRC/rt_CMSIS.c ****   return osOK;
 736:../Dave/Generated/src/RTOS001/SRC/rt_CMSIS.c **** }
 959              		.loc 1 736 0
 960 0006 4FF00000 		mov	r0, #0
 961 000a 08BD     		pop	{r3, pc}
 962              		.cfi_endproc
 963              	.LFE126:
 965              		.section	.text.svcThreadSetPriority,"ax",%progbits
 966              		.align	2
 967              		.global	svcThreadSetPriority
 968              		.thumb
 969              		.thumb_func
 971              	svcThreadSetPriority:
 972              	.LFB127:
 737:../Dave/Generated/src/RTOS001/SRC/rt_CMSIS.c **** 
 738:../Dave/Generated/src/RTOS001/SRC/rt_CMSIS.c **** /// Change priority of an active thread
 739:../Dave/Generated/src/RTOS001/SRC/rt_CMSIS.c **** osStatus svcThreadSetPriority (osThreadId thread_id, osPriority priority) {
 973              		.loc 1 739 0
 974              		.cfi_startproc
 975              		@ args = 0, pretend = 0, frame = 0
 976              		@ frame_needed = 0, uses_anonymous_args = 0
 977 0000 10B5     		push	{r4, lr}
 978              	.LCFI12:
 979              		.cfi_def_cfa_offset 8
 980              		.cfi_offset 4, -8
 981              		.cfi_offset 14, -4
 982 0002 0C46     		mov	r4, r1
 740:../Dave/Generated/src/RTOS001/SRC/rt_CMSIS.c ****   OS_RESULT res;
 741:../Dave/Generated/src/RTOS001/SRC/rt_CMSIS.c ****   P_TCB     ptcb;
 742:../Dave/Generated/src/RTOS001/SRC/rt_CMSIS.c **** 
 743:../Dave/Generated/src/RTOS001/SRC/rt_CMSIS.c ****   ptcb = rt_tid2ptcb(thread_id);                // Get TCB pointer
 983              		.loc 1 743 0
 984 0004 FFF7FEFF 		bl	rt_tid2ptcb
 744:../Dave/Generated/src/RTOS001/SRC/rt_CMSIS.c ****   if (ptcb == NULL) return osErrorParameter;
 985              		.loc 1 744 0
 986 0008 78B1     		cbz	r0, .L75
 745:../Dave/Generated/src/RTOS001/SRC/rt_CMSIS.c **** 
 746:../Dave/Generated/src/RTOS001/SRC/rt_CMSIS.c ****   if ((priority < osPriorityIdle) || (priority > osPriorityRealtime)) {
 987              		.loc 1 746 0
 988 000a 04F10303 		add	r3, r4, #3
 989 000e 9BB2     		uxth	r3, r3
 990 0010 062B     		cmp	r3, #6
 991 0012 0DD8     		bhi	.L76
 747:../Dave/Generated/src/RTOS001/SRC/rt_CMSIS.c ****     return osErrorValue;
 748:../Dave/Generated/src/RTOS001/SRC/rt_CMSIS.c ****   }
 749:../Dave/Generated/src/RTOS001/SRC/rt_CMSIS.c **** 
 750:../Dave/Generated/src/RTOS001/SRC/rt_CMSIS.c ****   res = rt_tsk_prio(                            // Change task priority
 992              		.loc 1 750 0
 993 0014 04F10401 		add	r1, r4, #4
 994 0018 C078     		ldrb	r0, [r0, #3]	@ zero_extendqisi2
 995 001a C9B2     		uxtb	r1, r1
 996 001c FFF7FEFF 		bl	rt_tsk_prio
 751:../Dave/Generated/src/RTOS001/SRC/rt_CMSIS.c ****     ptcb->task_id,                              // Task ID
 752:../Dave/Generated/src/RTOS001/SRC/rt_CMSIS.c ****     priority - osPriorityIdle + 1               // New task priority
 753:../Dave/Generated/src/RTOS001/SRC/rt_CMSIS.c ****   );
 754:../Dave/Generated/src/RTOS001/SRC/rt_CMSIS.c **** 
 755:../Dave/Generated/src/RTOS001/SRC/rt_CMSIS.c ****   if (res == OS_R_NOK) return osErrorResource;  // Change task priority failed
 997              		.loc 1 755 0
 998 0020 FF28     		cmp	r0, #255
 999 0022 0CBF     		ite	eq
 1000 0024 8120     		moveq	r0, #129
 1001 0026 0020     		movne	r0, #0
 1002 0028 10BD     		pop	{r4, pc}
 1003              	.L75:
 744:../Dave/Generated/src/RTOS001/SRC/rt_CMSIS.c ****   if (ptcb == NULL) return osErrorParameter;
 1004              		.loc 1 744 0
 1005 002a 4FF08000 		mov	r0, #128
 1006 002e 10BD     		pop	{r4, pc}
 1007              	.L76:
 747:../Dave/Generated/src/RTOS001/SRC/rt_CMSIS.c ****     return osErrorValue;
 1008              		.loc 1 747 0
 1009 0030 4FF08600 		mov	r0, #134
 756:../Dave/Generated/src/RTOS001/SRC/rt_CMSIS.c **** 
 757:../Dave/Generated/src/RTOS001/SRC/rt_CMSIS.c ****   return osOK;
 758:../Dave/Generated/src/RTOS001/SRC/rt_CMSIS.c **** }
 1010              		.loc 1 758 0
 1011 0034 10BD     		pop	{r4, pc}
 1012              		.cfi_endproc
 1013              	.LFE127:
 1015 0036 00BF     		.section	.text.svcThreadGetPriority,"ax",%progbits
 1016              		.align	2
 1017              		.global	svcThreadGetPriority
 1018              		.thumb
 1019              		.thumb_func
 1021              	svcThreadGetPriority:
 1022              	.LFB128:
 759:../Dave/Generated/src/RTOS001/SRC/rt_CMSIS.c **** 
 760:../Dave/Generated/src/RTOS001/SRC/rt_CMSIS.c **** /// Get current priority of an active thread
 761:../Dave/Generated/src/RTOS001/SRC/rt_CMSIS.c **** osPriority svcThreadGetPriority (osThreadId thread_id) {
 1023              		.loc 1 761 0
 1024              		.cfi_startproc
 1025              		@ args = 0, pretend = 0, frame = 0
 1026              		@ frame_needed = 0, uses_anonymous_args = 0
 1027 0000 08B5     		push	{r3, lr}
 1028              	.LCFI13:
 1029              		.cfi_def_cfa_offset 8
 1030              		.cfi_offset 3, -8
 1031              		.cfi_offset 14, -4
 762:../Dave/Generated/src/RTOS001/SRC/rt_CMSIS.c ****   P_TCB ptcb;
 763:../Dave/Generated/src/RTOS001/SRC/rt_CMSIS.c **** 
 764:../Dave/Generated/src/RTOS001/SRC/rt_CMSIS.c ****   ptcb = rt_tid2ptcb(thread_id);                // Get TCB pointer
 1032              		.loc 1 764 0
 1033 0002 FFF7FEFF 		bl	rt_tid2ptcb
 765:../Dave/Generated/src/RTOS001/SRC/rt_CMSIS.c ****   if (ptcb == NULL) return osPriorityError;
 1034              		.loc 1 765 0
 1035 0006 20B1     		cbz	r0, .L80
 766:../Dave/Generated/src/RTOS001/SRC/rt_CMSIS.c **** 
 767:../Dave/Generated/src/RTOS001/SRC/rt_CMSIS.c ****   return (osPriority)(ptcb->prio - 1 + osPriorityIdle); 
 1036              		.loc 1 767 0
 1037 0008 8078     		ldrb	r0, [r0, #2]	@ zero_extendqisi2
 1038 000a A0F10400 		sub	r0, r0, #4
 1039 000e 80B2     		uxth	r0, r0
 1040 0010 01E0     		b	.L79
 1041              	.L80:
 765:../Dave/Generated/src/RTOS001/SRC/rt_CMSIS.c ****   if (ptcb == NULL) return osPriorityError;
 1042              		.loc 1 765 0
 1043 0012 4FF08400 		mov	r0, #132
 1044              	.L79:
 768:../Dave/Generated/src/RTOS001/SRC/rt_CMSIS.c **** }
 1045              		.loc 1 768 0
 1046 0016 00B2     		sxth	r0, r0
 1047 0018 08BD     		pop	{r3, pc}
 1048              		.cfi_endproc
 1049              	.LFE128:
 1051 001a 00BF     		.section	.text.osThreadCreate,"ax",%progbits
 1052              		.align	2
 1053              		.global	osThreadCreate
 1054              		.thumb
 1055              		.thumb_func
 1057              	osThreadCreate:
 1058              	.LFB129:
 769:../Dave/Generated/src/RTOS001/SRC/rt_CMSIS.c **** 
 770:../Dave/Generated/src/RTOS001/SRC/rt_CMSIS.c **** 
 771:../Dave/Generated/src/RTOS001/SRC/rt_CMSIS.c **** // Thread Public API
 772:../Dave/Generated/src/RTOS001/SRC/rt_CMSIS.c **** 
 773:../Dave/Generated/src/RTOS001/SRC/rt_CMSIS.c **** /// Create a thread and add it to Active Threads and set it to state READY
 774:../Dave/Generated/src/RTOS001/SRC/rt_CMSIS.c **** osThreadId osThreadCreate (const osThreadDef_t *thread_def, void *argument) {
 1059              		.loc 1 774 0
 1060              		.cfi_startproc
 1061              		@ args = 0, pretend = 0, frame = 0
 1062              		@ frame_needed = 0, uses_anonymous_args = 0
 1063 0000 10B5     		push	{r4, lr}
 1064              	.LCFI14:
 1065              		.cfi_def_cfa_offset 8
 1066              		.cfi_offset 4, -8
 1067              		.cfi_offset 14, -4
 1068              	.LBB244:
 1069              	.LBB245:
 383:C:\DAVE-3.1.10\eclipse\/../CMSIS/Include\core_cmFunc.h ****   __ASM volatile ("MRS %0, ipsr" : "=r" (result) );
 1070              		.loc 2 383 0
 1071              	@ 383 "C:\DAVE-3.1.10\eclipse\/../CMSIS/Include/core_cmFunc.h" 1
 1072 0002 EFF30584 		MRS r4, ipsr
 1073              	@ 0 "" 2
 1074              		.thumb
 1075              	.LBE245:
 1076              	.LBE244:
 775:../Dave/Generated/src/RTOS001/SRC/rt_CMSIS.c ****   if (__get_IPSR() != 0) return NULL;           // Not allowed in ISR
 1077              		.loc 1 775 0
 1078 0006 8CB9     		cbnz	r4, .L84
 1079              	.LBB246:
 1080              	.LBB247:
 356:C:\DAVE-3.1.10\eclipse\/../CMSIS/Include\core_cmFunc.h ****   __ASM volatile ("MRS %0, control" : "=r" (result) );
 1081              		.loc 2 356 0
 1082              	@ 356 "C:\DAVE-3.1.10\eclipse\/../CMSIS/Include/core_cmFunc.h" 1
 1083 0008 EFF31484 		MRS r4, control
 1084              	@ 0 "" 2
 1085              		.thumb
 1086              	.LBE247:
 1087              	.LBE246:
 776:../Dave/Generated/src/RTOS001/SRC/rt_CMSIS.c ****   if (((__get_CONTROL() & 1) == 0) && (os_running == 0)) {
 1088              		.loc 1 776 0
 1089 000c 14F0010F 		tst	r4, #1
 1090 0010 08D1     		bne	.L83
 1091              		.loc 1 776 0 is_stmt 0 discriminator 1
 1092 0012 40F20004 		movw	r4, #:lower16:os_running
 1093 0016 C0F20004 		movt	r4, #:upper16:os_running
 1094 001a 2478     		ldrb	r4, [r4, #0]	@ zero_extendqisi2
 1095 001c 14B9     		cbnz	r4, .L83
 777:../Dave/Generated/src/RTOS001/SRC/rt_CMSIS.c ****     // Privileged and not running
 778:../Dave/Generated/src/RTOS001/SRC/rt_CMSIS.c ****     return   svcThreadCreate(thread_def, argument);
 1096              		.loc 1 778 0 is_stmt 1
 1097 001e FFF7FEFF 		bl	svcThreadCreate
 1098 0022 10BD     		pop	{r4, pc}
 1099              	.L83:
 1100              	.LBB248:
 1101              	.LBB249:
 642:../Dave/Generated/src/RTOS001/SRC/rt_CMSIS.c **** SVC_2_1(svcThreadCreate,      osThreadId, const osThreadDef_t *, void *,     RET_pointer)
 1102              		.loc 1 642 0
 1103              	@ 642 "../Dave/Generated/src/RTOS001/SRC/rt_CMSIS.c" 1
 1104 0024 DFF80CC0 		ldr r12,=svcThreadCreate
 1105 0028 00DF     		svc 0
 1106              	@ 0 "" 2
 1107              		.thumb
 1108              	.LBE249:
 1109              	.LBE248:
 779:../Dave/Generated/src/RTOS001/SRC/rt_CMSIS.c ****   } else {
 780:../Dave/Generated/src/RTOS001/SRC/rt_CMSIS.c ****     return __svcThreadCreate(thread_def, argument);
 1110              		.loc 1 780 0
 1111 002a 10BD     		pop	{r4, pc}
 1112              	.L84:
 775:../Dave/Generated/src/RTOS001/SRC/rt_CMSIS.c ****   if (__get_IPSR() != 0) return NULL;           // Not allowed in ISR
 1113              		.loc 1 775 0
 1114 002c 4FF00000 		mov	r0, #0
 781:../Dave/Generated/src/RTOS001/SRC/rt_CMSIS.c ****   }
 782:../Dave/Generated/src/RTOS001/SRC/rt_CMSIS.c **** }
 1115              		.loc 1 782 0
 1116 0030 10BD     		pop	{r4, pc}
 1117              		.cfi_endproc
 1118              	.LFE129:
 1120 0032 0000     		.section	.text.osThreadGetId,"ax",%progbits
 1121              		.align	2
 1122              		.global	osThreadGetId
 1123              		.thumb
 1124              		.thumb_func
 1126              	osThreadGetId:
 1127              	.LFB130:
 783:../Dave/Generated/src/RTOS001/SRC/rt_CMSIS.c **** 
 784:../Dave/Generated/src/RTOS001/SRC/rt_CMSIS.c **** /// Return the thread ID of the current running thread
 785:../Dave/Generated/src/RTOS001/SRC/rt_CMSIS.c **** osThreadId osThreadGetId (void) {
 1128              		.loc 1 785 0
 1129              		.cfi_startproc
 1130              		@ args = 0, pretend = 0, frame = 0
 1131              		@ frame_needed = 0, uses_anonymous_args = 0
 1132 0000 10B5     		push	{r4, lr}
 1133              	.LCFI15:
 1134              		.cfi_def_cfa_offset 8
 1135              		.cfi_offset 4, -8
 1136              		.cfi_offset 14, -4
 1137              	.LBB250:
 1138              	.LBB251:
 383:C:\DAVE-3.1.10\eclipse\/../CMSIS/Include\core_cmFunc.h ****   __ASM volatile ("MRS %0, ipsr" : "=r" (result) );
 1139              		.loc 2 383 0
 1140              	@ 383 "C:\DAVE-3.1.10\eclipse\/../CMSIS/Include/core_cmFunc.h" 1
 1141 0002 EFF30584 		MRS r4, ipsr
 1142              	@ 0 "" 2
 1143              		.thumb
 1144              	.LBE251:
 1145              	.LBE250:
 786:../Dave/Generated/src/RTOS001/SRC/rt_CMSIS.c ****   if (__get_IPSR() != 0) return NULL;           // Not allowed in ISR
 1146              		.loc 1 786 0
 1147 0006 1CB9     		cbnz	r4, .L87
 1148              	.LBB252:
 1149              	.LBB253:
 643:../Dave/Generated/src/RTOS001/SRC/rt_CMSIS.c **** SVC_0_1(svcThreadGetId,       osThreadId,                                    RET_pointer)
 1150              		.loc 1 643 0
 1151              	@ 643 "../Dave/Generated/src/RTOS001/SRC/rt_CMSIS.c" 1
 1152 0008 DFF80CC0 		ldr r12,=svcThreadGetId
 1153 000c 00DF     		svc 0
 1154              	@ 0 "" 2
 1155              		.thumb
 1156              	.LBE253:
 1157              	.LBE252:
 787:../Dave/Generated/src/RTOS001/SRC/rt_CMSIS.c ****   return __svcThreadGetId();
 1158              		.loc 1 787 0
 1159 000e 10BD     		pop	{r4, pc}
 1160              	.L87:
 786:../Dave/Generated/src/RTOS001/SRC/rt_CMSIS.c ****   if (__get_IPSR() != 0) return NULL;           // Not allowed in ISR
 1161              		.loc 1 786 0
 1162 0010 4FF00000 		mov	r0, #0
 788:../Dave/Generated/src/RTOS001/SRC/rt_CMSIS.c **** }
 1163              		.loc 1 788 0
 1164 0014 10BD     		pop	{r4, pc}
 1165              		.cfi_endproc
 1166              	.LFE130:
 1168 0016 0000     		.section	.text.osThreadTerminate,"ax",%progbits
 1169              		.align	2
 1170              		.global	osThreadTerminate
 1171              		.thumb
 1172              		.thumb_func
 1174              	osThreadTerminate:
 1175              	.LFB131:
 789:../Dave/Generated/src/RTOS001/SRC/rt_CMSIS.c **** 
 790:../Dave/Generated/src/RTOS001/SRC/rt_CMSIS.c **** /// Terminate execution of a thread and remove it from ActiveThreads
 791:../Dave/Generated/src/RTOS001/SRC/rt_CMSIS.c **** osStatus osThreadTerminate (osThreadId thread_id) {
 1176              		.loc 1 791 0
 1177              		.cfi_startproc
 1178              		@ args = 0, pretend = 0, frame = 0
 1179              		@ frame_needed = 0, uses_anonymous_args = 0
 1180 0000 10B5     		push	{r4, lr}
 1181              	.LCFI16:
 1182              		.cfi_def_cfa_offset 8
 1183              		.cfi_offset 4, -8
 1184              		.cfi_offset 14, -4
 1185              	.LBB254:
 1186              	.LBB255:
 383:C:\DAVE-3.1.10\eclipse\/../CMSIS/Include\core_cmFunc.h ****   __ASM volatile ("MRS %0, ipsr" : "=r" (result) );
 1187              		.loc 2 383 0
 1188              	@ 383 "C:\DAVE-3.1.10\eclipse\/../CMSIS/Include/core_cmFunc.h" 1
 1189 0002 EFF30584 		MRS r4, ipsr
 1190              	@ 0 "" 2
 1191              		.thumb
 1192              	.LBE255:
 1193              	.LBE254:
 792:../Dave/Generated/src/RTOS001/SRC/rt_CMSIS.c ****   if (__get_IPSR() != 0) return osErrorISR;     // Not allowed in ISR
 1194              		.loc 1 792 0
 1195 0006 1CB9     		cbnz	r4, .L90
 1196              	.LBB256:
 1197              	.LBB257:
 644:../Dave/Generated/src/RTOS001/SRC/rt_CMSIS.c **** SVC_1_1(svcThreadTerminate,   osStatus,         osThreadId,                  RET_osStatus)
 1198              		.loc 1 644 0
 1199              	@ 644 "../Dave/Generated/src/RTOS001/SRC/rt_CMSIS.c" 1
 1200 0008 DFF80CC0 		ldr r12,=svcThreadTerminate
 1201 000c 00DF     		svc 0
 1202              	@ 0 "" 2
 1203              		.thumb
 1204              	.LBE257:
 1205              	.LBE256:
 793:../Dave/Generated/src/RTOS001/SRC/rt_CMSIS.c ****   return __svcThreadTerminate(thread_id);
 1206              		.loc 1 793 0
 1207 000e 10BD     		pop	{r4, pc}
 1208              	.L90:
 792:../Dave/Generated/src/RTOS001/SRC/rt_CMSIS.c ****   if (__get_IPSR() != 0) return osErrorISR;     // Not allowed in ISR
 1209              		.loc 1 792 0
 1210 0010 4FF08200 		mov	r0, #130
 794:../Dave/Generated/src/RTOS001/SRC/rt_CMSIS.c **** }
 1211              		.loc 1 794 0
 1212 0014 10BD     		pop	{r4, pc}
 1213              		.cfi_endproc
 1214              	.LFE131:
 1216 0016 0000     		.section	.text.osThreadYield,"ax",%progbits
 1217              		.align	2
 1218              		.global	osThreadYield
 1219              		.thumb
 1220              		.thumb_func
 1222              	osThreadYield:
 1223              	.LFB132:
 795:../Dave/Generated/src/RTOS001/SRC/rt_CMSIS.c **** 
 796:../Dave/Generated/src/RTOS001/SRC/rt_CMSIS.c **** /// Pass control to next thread that is in state READY
 797:../Dave/Generated/src/RTOS001/SRC/rt_CMSIS.c **** osStatus osThreadYield (void) {
 1224              		.loc 1 797 0
 1225              		.cfi_startproc
 1226              		@ args = 0, pretend = 0, frame = 0
 1227              		@ frame_needed = 0, uses_anonymous_args = 0
 1228 0000 10B5     		push	{r4, lr}
 1229              	.LCFI17:
 1230              		.cfi_def_cfa_offset 8
 1231              		.cfi_offset 4, -8
 1232              		.cfi_offset 14, -4
 1233              	.LBB258:
 1234              	.LBB259:
 383:C:\DAVE-3.1.10\eclipse\/../CMSIS/Include\core_cmFunc.h ****   __ASM volatile ("MRS %0, ipsr" : "=r" (result) );
 1235              		.loc 2 383 0
 1236              	@ 383 "C:\DAVE-3.1.10\eclipse\/../CMSIS/Include/core_cmFunc.h" 1
 1237 0002 EFF30584 		MRS r4, ipsr
 1238              	@ 0 "" 2
 1239              		.thumb
 1240              	.LBE259:
 1241              	.LBE258:
 798:../Dave/Generated/src/RTOS001/SRC/rt_CMSIS.c ****   if (__get_IPSR() != 0) return osErrorISR;     // Not allowed in ISR
 1242              		.loc 1 798 0
 1243 0006 1CB9     		cbnz	r4, .L93
 1244              	.LBB260:
 1245              	.LBB261:
 645:../Dave/Generated/src/RTOS001/SRC/rt_CMSIS.c **** SVC_0_1(svcThreadYield,       osStatus,                                      RET_osStatus)
 1246              		.loc 1 645 0
 1247              	@ 645 "../Dave/Generated/src/RTOS001/SRC/rt_CMSIS.c" 1
 1248 0008 DFF80CC0 		ldr r12,=svcThreadYield
 1249 000c 00DF     		svc 0
 1250              	@ 0 "" 2
 1251              		.thumb
 1252              	.LBE261:
 1253              	.LBE260:
 799:../Dave/Generated/src/RTOS001/SRC/rt_CMSIS.c ****   return __svcThreadYield();
 1254              		.loc 1 799 0
 1255 000e 10BD     		pop	{r4, pc}
 1256              	.L93:
 798:../Dave/Generated/src/RTOS001/SRC/rt_CMSIS.c ****   if (__get_IPSR() != 0) return osErrorISR;     // Not allowed in ISR
 1257              		.loc 1 798 0
 1258 0010 4FF08200 		mov	r0, #130
 800:../Dave/Generated/src/RTOS001/SRC/rt_CMSIS.c **** }
 1259              		.loc 1 800 0
 1260 0014 10BD     		pop	{r4, pc}
 1261              		.cfi_endproc
 1262              	.LFE132:
 1264 0016 0000     		.section	.text.osThreadSetPriority,"ax",%progbits
 1265              		.align	2
 1266              		.global	osThreadSetPriority
 1267              		.thumb
 1268              		.thumb_func
 1270              	osThreadSetPriority:
 1271              	.LFB133:
 801:../Dave/Generated/src/RTOS001/SRC/rt_CMSIS.c **** 
 802:../Dave/Generated/src/RTOS001/SRC/rt_CMSIS.c **** /// Change priority of an active thread
 803:../Dave/Generated/src/RTOS001/SRC/rt_CMSIS.c **** osStatus osThreadSetPriority (osThreadId thread_id, osPriority priority) {
 1272              		.loc 1 803 0
 1273              		.cfi_startproc
 1274              		@ args = 0, pretend = 0, frame = 0
 1275              		@ frame_needed = 0, uses_anonymous_args = 0
 1276 0000 10B5     		push	{r4, lr}
 1277              	.LCFI18:
 1278              		.cfi_def_cfa_offset 8
 1279              		.cfi_offset 4, -8
 1280              		.cfi_offset 14, -4
 1281              	.LBB262:
 1282              	.LBB263:
 383:C:\DAVE-3.1.10\eclipse\/../CMSIS/Include\core_cmFunc.h ****   __ASM volatile ("MRS %0, ipsr" : "=r" (result) );
 1283              		.loc 2 383 0
 1284              	@ 383 "C:\DAVE-3.1.10\eclipse\/../CMSIS/Include/core_cmFunc.h" 1
 1285 0002 EFF30584 		MRS r4, ipsr
 1286              	@ 0 "" 2
 1287              		.thumb
 1288              	.LBE263:
 1289              	.LBE262:
 804:../Dave/Generated/src/RTOS001/SRC/rt_CMSIS.c ****   if (__get_IPSR() != 0) return osErrorISR;     // Not allowed in ISR
 1290              		.loc 1 804 0
 1291 0006 1CB9     		cbnz	r4, .L96
 1292              	.LBB264:
 1293              	.LBB265:
 646:../Dave/Generated/src/RTOS001/SRC/rt_CMSIS.c **** SVC_2_1(svcThreadSetPriority, osStatus,         osThreadId,      osPriority, RET_osStatus)
 1294              		.loc 1 646 0
 1295              	@ 646 "../Dave/Generated/src/RTOS001/SRC/rt_CMSIS.c" 1
 1296 0008 DFF80CC0 		ldr r12,=svcThreadSetPriority
 1297 000c 00DF     		svc 0
 1298              	@ 0 "" 2
 1299              		.thumb
 1300              	.LBE265:
 1301              	.LBE264:
 805:../Dave/Generated/src/RTOS001/SRC/rt_CMSIS.c ****   return __svcThreadSetPriority(thread_id, priority);
 1302              		.loc 1 805 0
 1303 000e 10BD     		pop	{r4, pc}
 1304              	.L96:
 804:../Dave/Generated/src/RTOS001/SRC/rt_CMSIS.c ****   if (__get_IPSR() != 0) return osErrorISR;     // Not allowed in ISR
 1305              		.loc 1 804 0
 1306 0010 4FF08200 		mov	r0, #130
 806:../Dave/Generated/src/RTOS001/SRC/rt_CMSIS.c **** }
 1307              		.loc 1 806 0
 1308 0014 10BD     		pop	{r4, pc}
 1309              		.cfi_endproc
 1310              	.LFE133:
 1312 0016 0000     		.section	.text.osThreadGetPriority,"ax",%progbits
 1313              		.align	2
 1314              		.global	osThreadGetPriority
 1315              		.thumb
 1316              		.thumb_func
 1318              	osThreadGetPriority:
 1319              	.LFB134:
 807:../Dave/Generated/src/RTOS001/SRC/rt_CMSIS.c **** 
 808:../Dave/Generated/src/RTOS001/SRC/rt_CMSIS.c **** /// Get current priority of an active thread
 809:../Dave/Generated/src/RTOS001/SRC/rt_CMSIS.c **** osPriority osThreadGetPriority (osThreadId thread_id) {
 1320              		.loc 1 809 0
 1321              		.cfi_startproc
 1322              		@ args = 0, pretend = 0, frame = 0
 1323              		@ frame_needed = 0, uses_anonymous_args = 0
 1324 0000 10B5     		push	{r4, lr}
 1325              	.LCFI19:
 1326              		.cfi_def_cfa_offset 8
 1327              		.cfi_offset 4, -8
 1328              		.cfi_offset 14, -4
 1329              	.LBB266:
 1330              	.LBB267:
 383:C:\DAVE-3.1.10\eclipse\/../CMSIS/Include\core_cmFunc.h ****   __ASM volatile ("MRS %0, ipsr" : "=r" (result) );
 1331              		.loc 2 383 0
 1332              	@ 383 "C:\DAVE-3.1.10\eclipse\/../CMSIS/Include/core_cmFunc.h" 1
 1333 0002 EFF30584 		MRS r4, ipsr
 1334              	@ 0 "" 2
 1335              		.thumb
 1336              	.LBE267:
 1337              	.LBE266:
 810:../Dave/Generated/src/RTOS001/SRC/rt_CMSIS.c ****   if (__get_IPSR() != 0) return osPriorityError;// Not allowed in ISR
 1338              		.loc 1 810 0
 1339 0006 24B9     		cbnz	r4, .L99
 1340              	.LBB268:
 1341              	.LBB269:
 647:../Dave/Generated/src/RTOS001/SRC/rt_CMSIS.c **** SVC_1_1(svcThreadGetPriority, osPriority,       osThreadId,                  RET_osPriority)
 1342              		.loc 1 647 0
 1343              	@ 647 "../Dave/Generated/src/RTOS001/SRC/rt_CMSIS.c" 1
 1344 0008 DFF810C0 		ldr r12,=svcThreadGetPriority
 1345 000c 00DF     		svc 0
 1346              	@ 0 "" 2
 1347              		.thumb
 1348 000e 80B2     		uxth	r0, r0
 1349              	.LBE269:
 1350              	.LBE268:
 811:../Dave/Generated/src/RTOS001/SRC/rt_CMSIS.c ****   return __svcThreadGetPriority(thread_id);
 1351              		.loc 1 811 0
 1352 0010 01E0     		b	.L98
 1353              	.L99:
 810:../Dave/Generated/src/RTOS001/SRC/rt_CMSIS.c ****   if (__get_IPSR() != 0) return osPriorityError;// Not allowed in ISR
 1354              		.loc 1 810 0
 1355 0012 4FF08400 		mov	r0, #132
 1356              	.L98:
 812:../Dave/Generated/src/RTOS001/SRC/rt_CMSIS.c **** }
 1357              		.loc 1 812 0
 1358 0016 00B2     		sxth	r0, r0
 1359 0018 10BD     		pop	{r4, pc}
 1360              		.cfi_endproc
 1361              	.LFE134:
 1363 001a 0000     		.section	.text.osThreadExit,"ax",%progbits
 1364              		.align	2
 1365              		.global	osThreadExit
 1366              		.thumb
 1367              		.thumb_func
 1369              	osThreadExit:
 1370              	.LFB135:
 813:../Dave/Generated/src/RTOS001/SRC/rt_CMSIS.c **** 
 814:../Dave/Generated/src/RTOS001/SRC/rt_CMSIS.c **** /// INTERNAL - Not Public
 815:../Dave/Generated/src/RTOS001/SRC/rt_CMSIS.c **** /// Auto Terminate Thread on exit (used implicitly when thread exists)
 816:../Dave/Generated/src/RTOS001/SRC/rt_CMSIS.c **** __NO_RETURN void osThreadExit (void) { 
 1371              		.loc 1 816 0
 1372              		.cfi_startproc
 1373              		@ Volatile: function does not return.
 1374              		@ args = 0, pretend = 0, frame = 0
 1375              		@ frame_needed = 0, uses_anonymous_args = 0
 1376 0000 00B5     		push	{lr}
 1377              	.LCFI20:
 1378              		.cfi_def_cfa_offset 4
 1379              		.cfi_offset 14, -4
 1380              	.LBB270:
 1381              	.LBB271:
 643:../Dave/Generated/src/RTOS001/SRC/rt_CMSIS.c **** SVC_0_1(svcThreadGetId,       osThreadId,                                    RET_pointer)
 1382              		.loc 1 643 0
 1383              	@ 643 "../Dave/Generated/src/RTOS001/SRC/rt_CMSIS.c" 1
 1384 0002 DFF80CC0 		ldr r12,=svcThreadGetId
 1385 0006 00DF     		svc 0
 1386              	@ 0 "" 2
 1387              		.thumb
 1388              	.LBE271:
 1389              	.LBE270:
 1390              	.LBB272:
 1391              	.LBB273:
 644:../Dave/Generated/src/RTOS001/SRC/rt_CMSIS.c **** SVC_1_1(svcThreadTerminate,   osStatus,         osThreadId,                  RET_osStatus)
 1392              		.loc 1 644 0
 1393              	@ 644 "../Dave/Generated/src/RTOS001/SRC/rt_CMSIS.c" 1
 1394 0008 DFF808C0 		ldr r12,=svcThreadTerminate
 1395 000c 00DF     		svc 0
 1396              	@ 0 "" 2
 1397              		.thumb
 1398              	.L101:
 1399 000e FEE7     		b	.L101
 1400              	.LBE273:
 1401              	.LBE272:
 1402              		.cfi_endproc
 1403              	.LFE135:
 1405              		.section	.text.svcDelay,"ax",%progbits
 1406              		.align	2
 1407              		.global	svcDelay
 1408              		.thumb
 1409              		.thumb_func
 1411              	svcDelay:
 1412              	.LFB137:
 817:../Dave/Generated/src/RTOS001/SRC/rt_CMSIS.c ****   __svcThreadTerminate(__svcThreadGetId()); 
 818:../Dave/Generated/src/RTOS001/SRC/rt_CMSIS.c ****   for (;;);                                     // Should never come here
 819:../Dave/Generated/src/RTOS001/SRC/rt_CMSIS.c **** }
 820:../Dave/Generated/src/RTOS001/SRC/rt_CMSIS.c **** 
 821:../Dave/Generated/src/RTOS001/SRC/rt_CMSIS.c **** 
 822:../Dave/Generated/src/RTOS001/SRC/rt_CMSIS.c **** // ==== Generic Wait Functions ====
 823:../Dave/Generated/src/RTOS001/SRC/rt_CMSIS.c **** 
 824:../Dave/Generated/src/RTOS001/SRC/rt_CMSIS.c **** // Generic Wait Service Calls declarations
 825:../Dave/Generated/src/RTOS001/SRC/rt_CMSIS.c **** SVC_1_1(svcDelay,           osStatus, uint32_t, RET_osStatus)
 826:../Dave/Generated/src/RTOS001/SRC/rt_CMSIS.c **** #if osFeature_Wait != 0
 827:../Dave/Generated/src/RTOS001/SRC/rt_CMSIS.c **** SVC_1_3(svcWait,  os_InRegs osEvent,  uint32_t, RET_osEvent)
 828:../Dave/Generated/src/RTOS001/SRC/rt_CMSIS.c **** #endif
 829:../Dave/Generated/src/RTOS001/SRC/rt_CMSIS.c **** 
 830:../Dave/Generated/src/RTOS001/SRC/rt_CMSIS.c **** // Generic Wait Service Calls
 831:../Dave/Generated/src/RTOS001/SRC/rt_CMSIS.c **** 
 832:../Dave/Generated/src/RTOS001/SRC/rt_CMSIS.c **** /// Wait for Timeout (Time Delay)
 833:../Dave/Generated/src/RTOS001/SRC/rt_CMSIS.c **** osStatus svcDelay (uint32_t millisec) {
 1413              		.loc 1 833 0
 1414              		.cfi_startproc
 1415              		@ args = 0, pretend = 0, frame = 0
 1416              		@ frame_needed = 0, uses_anonymous_args = 0
 1417 0000 08B5     		push	{r3, lr}
 1418              	.LCFI21:
 1419              		.cfi_def_cfa_offset 8
 1420              		.cfi_offset 3, -8
 1421              		.cfi_offset 14, -4
 834:../Dave/Generated/src/RTOS001/SRC/rt_CMSIS.c ****   if (millisec == 0) return osOK;
 1422              		.loc 1 834 0
 1423 0002 38B1     		cbz	r0, .L104
 835:../Dave/Generated/src/RTOS001/SRC/rt_CMSIS.c ****   rt_dly_wait(rt_ms2tick(millisec));
 1424              		.loc 1 835 0
 1425 0004 FFF7FEFF 		bl	rt_ms2tick
 1426 0008 80B2     		uxth	r0, r0
 1427 000a FFF7FEFF 		bl	rt_dly_wait
 836:../Dave/Generated/src/RTOS001/SRC/rt_CMSIS.c ****   return osEventTimeout;
 1428              		.loc 1 836 0
 1429 000e 4FF04000 		mov	r0, #64
 1430 0012 08BD     		pop	{r3, pc}
 1431              	.L104:
 834:../Dave/Generated/src/RTOS001/SRC/rt_CMSIS.c ****   if (millisec == 0) return osOK;
 1432              		.loc 1 834 0
 1433 0014 4FF00000 		mov	r0, #0
 837:../Dave/Generated/src/RTOS001/SRC/rt_CMSIS.c **** }
 1434              		.loc 1 837 0
 1435 0018 08BD     		pop	{r3, pc}
 1436              		.cfi_endproc
 1437              	.LFE137:
 1439 001a 00BF     		.section	.text.osDelay,"ax",%progbits
 1440              		.align	2
 1441              		.global	osDelay
 1442              		.thumb
 1443              		.thumb_func
 1445              	osDelay:
 1446              	.LFB138:
 838:../Dave/Generated/src/RTOS001/SRC/rt_CMSIS.c **** 
 839:../Dave/Generated/src/RTOS001/SRC/rt_CMSIS.c **** /// Wait for Signal, Message, Mail, or Timeout
 840:../Dave/Generated/src/RTOS001/SRC/rt_CMSIS.c **** #if osFeature_Wait != 0
 841:../Dave/Generated/src/RTOS001/SRC/rt_CMSIS.c **** os_InRegs osEvent_type svcWait (uint32_t millisec) {
 842:../Dave/Generated/src/RTOS001/SRC/rt_CMSIS.c ****   osEvent ret;
 843:../Dave/Generated/src/RTOS001/SRC/rt_CMSIS.c **** 
 844:../Dave/Generated/src/RTOS001/SRC/rt_CMSIS.c ****   if (millisec == 0) {
 845:../Dave/Generated/src/RTOS001/SRC/rt_CMSIS.c ****     ret.status = osOK;
 846:../Dave/Generated/src/RTOS001/SRC/rt_CMSIS.c ****     return osEvent_ret_status;
 847:../Dave/Generated/src/RTOS001/SRC/rt_CMSIS.c ****   }
 848:../Dave/Generated/src/RTOS001/SRC/rt_CMSIS.c **** 
 849:../Dave/Generated/src/RTOS001/SRC/rt_CMSIS.c ****   /* To Do: osEventSignal, osEventMessage, osEventMail */
 850:../Dave/Generated/src/RTOS001/SRC/rt_CMSIS.c ****   rt_dly_wait(rt_ms2tick(millisec));
 851:../Dave/Generated/src/RTOS001/SRC/rt_CMSIS.c ****   ret.status = osEventTimeout;
 852:../Dave/Generated/src/RTOS001/SRC/rt_CMSIS.c **** 
 853:../Dave/Generated/src/RTOS001/SRC/rt_CMSIS.c ****   return osEvent_ret_status;
 854:../Dave/Generated/src/RTOS001/SRC/rt_CMSIS.c **** }
 855:../Dave/Generated/src/RTOS001/SRC/rt_CMSIS.c **** #endif
 856:../Dave/Generated/src/RTOS001/SRC/rt_CMSIS.c **** 
 857:../Dave/Generated/src/RTOS001/SRC/rt_CMSIS.c **** 
 858:../Dave/Generated/src/RTOS001/SRC/rt_CMSIS.c **** // Generic Wait API
 859:../Dave/Generated/src/RTOS001/SRC/rt_CMSIS.c **** 
 860:../Dave/Generated/src/RTOS001/SRC/rt_CMSIS.c **** /// Wait for Timeout (Time Delay)
 861:../Dave/Generated/src/RTOS001/SRC/rt_CMSIS.c **** osStatus osDelay (uint32_t millisec) {
 1447              		.loc 1 861 0
 1448              		.cfi_startproc
 1449              		@ args = 0, pretend = 0, frame = 0
 1450              		@ frame_needed = 0, uses_anonymous_args = 0
 1451 0000 10B5     		push	{r4, lr}
 1452              	.LCFI22:
 1453              		.cfi_def_cfa_offset 8
 1454              		.cfi_offset 4, -8
 1455              		.cfi_offset 14, -4
 1456              	.LBB274:
 1457              	.LBB275:
 383:C:\DAVE-3.1.10\eclipse\/../CMSIS/Include\core_cmFunc.h ****   __ASM volatile ("MRS %0, ipsr" : "=r" (result) );
 1458              		.loc 2 383 0
 1459              	@ 383 "C:\DAVE-3.1.10\eclipse\/../CMSIS/Include/core_cmFunc.h" 1
 1460 0002 EFF30584 		MRS r4, ipsr
 1461              	@ 0 "" 2
 1462              		.thumb
 1463              	.LBE275:
 1464              	.LBE274:
 862:../Dave/Generated/src/RTOS001/SRC/rt_CMSIS.c ****   if (__get_IPSR() != 0) return osErrorISR;     // Not allowed in ISR
 1465              		.loc 1 862 0
 1466 0006 1CB9     		cbnz	r4, .L107
 1467              	.LBB276:
 1468              	.LBB277:
 825:../Dave/Generated/src/RTOS001/SRC/rt_CMSIS.c **** SVC_1_1(svcDelay,           osStatus, uint32_t, RET_osStatus)
 1469              		.loc 1 825 0
 1470              	@ 825 "../Dave/Generated/src/RTOS001/SRC/rt_CMSIS.c" 1
 1471 0008 DFF80CC0 		ldr r12,=svcDelay
 1472 000c 00DF     		svc 0
 1473              	@ 0 "" 2
 1474              		.thumb
 1475              	.LBE277:
 1476              	.LBE276:
 863:../Dave/Generated/src/RTOS001/SRC/rt_CMSIS.c ****   return __svcDelay(millisec);
 1477              		.loc 1 863 0
 1478 000e 10BD     		pop	{r4, pc}
 1479              	.L107:
 862:../Dave/Generated/src/RTOS001/SRC/rt_CMSIS.c ****   if (__get_IPSR() != 0) return osErrorISR;     // Not allowed in ISR
 1480              		.loc 1 862 0
 1481 0010 4FF08200 		mov	r0, #130
 864:../Dave/Generated/src/RTOS001/SRC/rt_CMSIS.c **** }
 1482              		.loc 1 864 0
 1483 0014 10BD     		pop	{r4, pc}
 1484              		.cfi_endproc
 1485              	.LFE138:
 1487 0016 0000     		.section	.text.osWait,"ax",%progbits
 1488              		.align	2
 1489              		.global	osWait
 1490              		.thumb
 1491              		.thumb_func
 1493              	osWait:
 1494              	.LFB139:
 865:../Dave/Generated/src/RTOS001/SRC/rt_CMSIS.c **** 
 866:../Dave/Generated/src/RTOS001/SRC/rt_CMSIS.c **** /// Wait for Signal, Message, Mail, or Timeout
 867:../Dave/Generated/src/RTOS001/SRC/rt_CMSIS.c **** os_InRegs osEvent osWait (uint32_t millisec) {
 1495              		.loc 1 867 0
 1496              		.cfi_startproc
 1497              		@ args = 0, pretend = 0, frame = 0
 1498              		@ frame_needed = 0, uses_anonymous_args = 0
 1499              		@ link register save eliminated.
 868:../Dave/Generated/src/RTOS001/SRC/rt_CMSIS.c ****   osEvent ret;
 869:../Dave/Generated/src/RTOS001/SRC/rt_CMSIS.c **** 
 870:../Dave/Generated/src/RTOS001/SRC/rt_CMSIS.c **** #if osFeature_Wait == 0
 871:../Dave/Generated/src/RTOS001/SRC/rt_CMSIS.c ****   ret.status = osErrorOS;
 872:../Dave/Generated/src/RTOS001/SRC/rt_CMSIS.c ****   return ret;
 1500              		.loc 1 872 0
 1501 0000 4FF0FF03 		mov	r3, #255
 1502 0004 0360     		str	r3, [r0, #0]
 873:../Dave/Generated/src/RTOS001/SRC/rt_CMSIS.c **** #else
 874:../Dave/Generated/src/RTOS001/SRC/rt_CMSIS.c ****   if (__get_IPSR() != 0) {                      // Not allowed in ISR
 875:../Dave/Generated/src/RTOS001/SRC/rt_CMSIS.c ****     ret.status = osErrorISR;
 876:../Dave/Generated/src/RTOS001/SRC/rt_CMSIS.c ****     return ret;
 877:../Dave/Generated/src/RTOS001/SRC/rt_CMSIS.c ****   }
 878:../Dave/Generated/src/RTOS001/SRC/rt_CMSIS.c ****   return __svcWait(millisec);
 879:../Dave/Generated/src/RTOS001/SRC/rt_CMSIS.c **** #endif
 880:../Dave/Generated/src/RTOS001/SRC/rt_CMSIS.c **** }
 1503              		.loc 1 880 0
 1504 0006 7047     		bx	lr
 1505              		.cfi_endproc
 1506              	.LFE139:
 1508              		.comm	os_timer_head,4,4
 1509              		.section	.text.rt_timer_insert,"ax",%progbits
 1510              		.align	2
 1511              		.thumb
 1512              		.thumb_func
 1514              	rt_timer_insert:
 1515              	.LFB140:
 881:../Dave/Generated/src/RTOS001/SRC/rt_CMSIS.c **** 
 882:../Dave/Generated/src/RTOS001/SRC/rt_CMSIS.c **** 
 883:../Dave/Generated/src/RTOS001/SRC/rt_CMSIS.c **** // ==== Timer Management ====
 884:../Dave/Generated/src/RTOS001/SRC/rt_CMSIS.c **** 
 885:../Dave/Generated/src/RTOS001/SRC/rt_CMSIS.c **** // Timer definitions
 886:../Dave/Generated/src/RTOS001/SRC/rt_CMSIS.c **** #define osTimerInvalid  0
 887:../Dave/Generated/src/RTOS001/SRC/rt_CMSIS.c **** #define osTimerStopped  1
 888:../Dave/Generated/src/RTOS001/SRC/rt_CMSIS.c **** #define osTimerRunning  2
 889:../Dave/Generated/src/RTOS001/SRC/rt_CMSIS.c **** 
 890:../Dave/Generated/src/RTOS001/SRC/rt_CMSIS.c **** // Timer structures 
 891:../Dave/Generated/src/RTOS001/SRC/rt_CMSIS.c **** 
 892:../Dave/Generated/src/RTOS001/SRC/rt_CMSIS.c **** typedef struct os_timer_cb_ {                   // Timer Control Block
 893:../Dave/Generated/src/RTOS001/SRC/rt_CMSIS.c ****   struct os_timer_cb_ *next;                    // Pointer to next active Timer
 894:../Dave/Generated/src/RTOS001/SRC/rt_CMSIS.c ****   uint8_t             state;                    // Timer State
 895:../Dave/Generated/src/RTOS001/SRC/rt_CMSIS.c ****   uint8_t              type;                    // Timer Type (Periodic/One-shot)
 896:../Dave/Generated/src/RTOS001/SRC/rt_CMSIS.c ****   uint16_t         reserved;                    // Reserved
 897:../Dave/Generated/src/RTOS001/SRC/rt_CMSIS.c ****   uint16_t             tcnt;                    // Timer Delay Count
 898:../Dave/Generated/src/RTOS001/SRC/rt_CMSIS.c ****   uint16_t             icnt;                    // Timer Initial Count 
 899:../Dave/Generated/src/RTOS001/SRC/rt_CMSIS.c ****   void                 *arg;                    // Timer Function Argument
 900:../Dave/Generated/src/RTOS001/SRC/rt_CMSIS.c ****   const osTimerDef_t *timer;                    // Pointer to Timer definition
 901:../Dave/Generated/src/RTOS001/SRC/rt_CMSIS.c **** } os_timer_cb;
 902:../Dave/Generated/src/RTOS001/SRC/rt_CMSIS.c **** 
 903:../Dave/Generated/src/RTOS001/SRC/rt_CMSIS.c **** // Timer variables
 904:../Dave/Generated/src/RTOS001/SRC/rt_CMSIS.c **** os_timer_cb *os_timer_head;                     // Pointer to first active Timer
 905:../Dave/Generated/src/RTOS001/SRC/rt_CMSIS.c **** 
 906:../Dave/Generated/src/RTOS001/SRC/rt_CMSIS.c **** 
 907:../Dave/Generated/src/RTOS001/SRC/rt_CMSIS.c **** // Timer Helper Functions
 908:../Dave/Generated/src/RTOS001/SRC/rt_CMSIS.c **** 
 909:../Dave/Generated/src/RTOS001/SRC/rt_CMSIS.c **** // Insert Timer into the list sorted by time
 910:../Dave/Generated/src/RTOS001/SRC/rt_CMSIS.c **** static void rt_timer_insert (os_timer_cb *pt, uint32_t tcnt) {
 1516              		.loc 1 910 0
 1517              		.cfi_startproc
 1518              		@ args = 0, pretend = 0, frame = 0
 1519              		@ frame_needed = 0, uses_anonymous_args = 0
 1520              		@ link register save eliminated.
 1521 0000 10B4     		push	{r4}
 1522              	.LCFI23:
 1523              		.cfi_def_cfa_offset 4
 1524              		.cfi_offset 4, -4
 911:../Dave/Generated/src/RTOS001/SRC/rt_CMSIS.c ****   os_timer_cb *p, *prev;
 912:../Dave/Generated/src/RTOS001/SRC/rt_CMSIS.c **** 
 913:../Dave/Generated/src/RTOS001/SRC/rt_CMSIS.c ****   prev = NULL;
 914:../Dave/Generated/src/RTOS001/SRC/rt_CMSIS.c ****   p = os_timer_head;
 1525              		.loc 1 914 0
 1526 0002 40F20003 		movw	r3, #:lower16:os_timer_head
 1527 0006 C0F20003 		movt	r3, #:upper16:os_timer_head
 1528 000a 1C68     		ldr	r4, [r3, #0]
 915:../Dave/Generated/src/RTOS001/SRC/rt_CMSIS.c ****   while (p != NULL) {
 1529              		.loc 1 915 0
 1530 000c FCB1     		cbz	r4, .L117
 916:../Dave/Generated/src/RTOS001/SRC/rt_CMSIS.c ****     if (tcnt < p->tcnt) break;
 1531              		.loc 1 916 0
 1532 000e 2289     		ldrh	r2, [r4, #8]
 1533 0010 9142     		cmp	r1, r2
 1534 0012 04D2     		bcs	.L120
 1535 0014 11E0     		b	.L118
 1536              	.L113:
 1537 0016 1A89     		ldrh	r2, [r3, #8]
 1538 0018 8A42     		cmp	r2, r1
 1539 001a 11D8     		bhi	.L111
 917:../Dave/Generated/src/RTOS001/SRC/rt_CMSIS.c ****     tcnt -= p->tcnt;
 918:../Dave/Generated/src/RTOS001/SRC/rt_CMSIS.c ****     prev = p;
 919:../Dave/Generated/src/RTOS001/SRC/rt_CMSIS.c ****     p = p->next;
 1540              		.loc 1 919 0
 1541 001c 1C46     		mov	r4, r3
 1542              	.L120:
 917:../Dave/Generated/src/RTOS001/SRC/rt_CMSIS.c ****     tcnt -= p->tcnt;
 1543              		.loc 1 917 0
 1544 001e 891A     		subs	r1, r1, r2
 1545              		.loc 1 919 0
 1546 0020 2368     		ldr	r3, [r4, #0]
 915:../Dave/Generated/src/RTOS001/SRC/rt_CMSIS.c ****   while (p != NULL) {
 1547              		.loc 1 915 0
 1548 0022 002B     		cmp	r3, #0
 1549 0024 F7D1     		bne	.L113
 1550 0026 15E0     		b	.L110
 1551              	.L116:
 920:../Dave/Generated/src/RTOS001/SRC/rt_CMSIS.c ****   }
 921:../Dave/Generated/src/RTOS001/SRC/rt_CMSIS.c ****   pt->next = p;
 922:../Dave/Generated/src/RTOS001/SRC/rt_CMSIS.c ****   pt->tcnt = (uint16_t)tcnt;
 923:../Dave/Generated/src/RTOS001/SRC/rt_CMSIS.c ****   if (p != NULL) {
 924:../Dave/Generated/src/RTOS001/SRC/rt_CMSIS.c ****     p->tcnt -= pt->tcnt;
 925:../Dave/Generated/src/RTOS001/SRC/rt_CMSIS.c ****   }
 926:../Dave/Generated/src/RTOS001/SRC/rt_CMSIS.c ****   if (prev != NULL) {
 1552              		.loc 1 926 0
 1553 0028 0CB1     		cbz	r4, .L114
 927:../Dave/Generated/src/RTOS001/SRC/rt_CMSIS.c ****     prev->next = pt;
 1554              		.loc 1 927 0
 1555 002a 2060     		str	r0, [r4, #0]
 1556 002c 15E0     		b	.L109
 1557              	.L114:
 928:../Dave/Generated/src/RTOS001/SRC/rt_CMSIS.c ****   } else {
 929:../Dave/Generated/src/RTOS001/SRC/rt_CMSIS.c ****     os_timer_head = pt;
 1558              		.loc 1 929 0
 1559 002e 40F20003 		movw	r3, #:lower16:os_timer_head
 1560 0032 C0F20003 		movt	r3, #:upper16:os_timer_head
 1561 0036 1860     		str	r0, [r3, #0]
 1562 0038 0FE0     		b	.L109
 1563              	.L118:
 914:../Dave/Generated/src/RTOS001/SRC/rt_CMSIS.c ****   p = os_timer_head;
 1564              		.loc 1 914 0
 1565 003a 2346     		mov	r3, r4
 913:../Dave/Generated/src/RTOS001/SRC/rt_CMSIS.c ****   prev = NULL;
 1566              		.loc 1 913 0
 1567 003c 4FF00004 		mov	r4, #0
 1568              	.L111:
 921:../Dave/Generated/src/RTOS001/SRC/rt_CMSIS.c ****   pt->next = p;
 1569              		.loc 1 921 0
 1570 0040 0360     		str	r3, [r0, #0]
 922:../Dave/Generated/src/RTOS001/SRC/rt_CMSIS.c ****   pt->tcnt = (uint16_t)tcnt;
 1571              		.loc 1 922 0
 1572 0042 89B2     		uxth	r1, r1
 1573 0044 0181     		strh	r1, [r0, #8]	@ movhi
 924:../Dave/Generated/src/RTOS001/SRC/rt_CMSIS.c ****     p->tcnt -= pt->tcnt;
 1574              		.loc 1 924 0
 1575 0046 1A89     		ldrh	r2, [r3, #8]
 1576 0048 511A     		subs	r1, r2, r1
 1577 004a 1981     		strh	r1, [r3, #8]	@ movhi
 1578 004c ECE7     		b	.L116
 1579              	.L117:
 914:../Dave/Generated/src/RTOS001/SRC/rt_CMSIS.c ****   p = os_timer_head;
 1580              		.loc 1 914 0
 1581 004e 2346     		mov	r3, r4
 913:../Dave/Generated/src/RTOS001/SRC/rt_CMSIS.c ****   prev = NULL;
 1582              		.loc 1 913 0
 1583 0050 4FF00004 		mov	r4, #0
 1584              	.L110:
 921:../Dave/Generated/src/RTOS001/SRC/rt_CMSIS.c ****   pt->next = p;
 1585              		.loc 1 921 0
 1586 0054 0360     		str	r3, [r0, #0]
 922:../Dave/Generated/src/RTOS001/SRC/rt_CMSIS.c ****   pt->tcnt = (uint16_t)tcnt;
 1587              		.loc 1 922 0
 1588 0056 0181     		strh	r1, [r0, #8]	@ movhi
 1589 0058 E6E7     		b	.L116
 1590              	.L109:
 930:../Dave/Generated/src/RTOS001/SRC/rt_CMSIS.c ****   }
 931:../Dave/Generated/src/RTOS001/SRC/rt_CMSIS.c **** }
 1591              		.loc 1 931 0
 1592 005a 10BC     		pop	{r4}
 1593 005c 7047     		bx	lr
 1594              		.cfi_endproc
 1595              	.LFE140:
 1597 005e 00BF     		.section	.text.rt_timer_remove,"ax",%progbits
 1598              		.align	2
 1599              		.thumb
 1600              		.thumb_func
 1602              	rt_timer_remove:
 1603              	.LFB141:
 932:../Dave/Generated/src/RTOS001/SRC/rt_CMSIS.c **** 
 933:../Dave/Generated/src/RTOS001/SRC/rt_CMSIS.c **** // Remove Timer from the list
 934:../Dave/Generated/src/RTOS001/SRC/rt_CMSIS.c **** static int rt_timer_remove (os_timer_cb *pt) {
 1604              		.loc 1 934 0
 1605              		.cfi_startproc
 1606              		@ args = 0, pretend = 0, frame = 0
 1607              		@ frame_needed = 0, uses_anonymous_args = 0
 1608              		@ link register save eliminated.
 935:../Dave/Generated/src/RTOS001/SRC/rt_CMSIS.c ****   os_timer_cb *p, *prev;
 936:../Dave/Generated/src/RTOS001/SRC/rt_CMSIS.c **** 
 937:../Dave/Generated/src/RTOS001/SRC/rt_CMSIS.c ****   prev = NULL;
 938:../Dave/Generated/src/RTOS001/SRC/rt_CMSIS.c ****   p = os_timer_head;
 1609              		.loc 1 938 0
 1610 0000 40F20003 		movw	r3, #:lower16:os_timer_head
 1611 0004 C0F20003 		movt	r3, #:upper16:os_timer_head
 1612 0008 1A68     		ldr	r2, [r3, #0]
 939:../Dave/Generated/src/RTOS001/SRC/rt_CMSIS.c ****   while (p != NULL) {
 1613              		.loc 1 939 0
 1614 000a EAB1     		cbz	r2, .L129
 940:../Dave/Generated/src/RTOS001/SRC/rt_CMSIS.c ****     if (p == pt) break;
 1615              		.loc 1 940 0
 1616 000c 8242     		cmp	r2, r0
 1617 000e 03D1     		bne	.L131
 1618 0010 0BE0     		b	.L123
 1619              	.L126:
 1620 0012 9842     		cmp	r0, r3
 1621 0014 1ED0     		beq	.L125
 941:../Dave/Generated/src/RTOS001/SRC/rt_CMSIS.c ****     prev = p;
 942:../Dave/Generated/src/RTOS001/SRC/rt_CMSIS.c ****     p = p->next;
 1622              		.loc 1 942 0
 1623 0016 1A46     		mov	r2, r3
 1624              	.L131:
 1625 0018 1368     		ldr	r3, [r2, #0]
 939:../Dave/Generated/src/RTOS001/SRC/rt_CMSIS.c ****   while (p != NULL) {
 1626              		.loc 1 939 0
 1627 001a 002B     		cmp	r3, #0
 1628 001c F9D1     		bne	.L126
 943:../Dave/Generated/src/RTOS001/SRC/rt_CMSIS.c ****   }
 944:../Dave/Generated/src/RTOS001/SRC/rt_CMSIS.c ****   if (p == NULL) return -1;
 1629              		.loc 1 944 0
 1630 001e 4FF0FF30 		mov	r0, #-1
 1631 0022 7047     		bx	lr
 1632              	.L128:
 945:../Dave/Generated/src/RTOS001/SRC/rt_CMSIS.c ****   if (prev != NULL) {
 946:../Dave/Generated/src/RTOS001/SRC/rt_CMSIS.c ****     prev->next = pt->next;
 1633              		.loc 1 946 0
 1634 0024 0368     		ldr	r3, [r0, #0]
 1635 0026 1360     		str	r3, [r2, #0]
 1636 0028 05E0     		b	.L127
 1637              	.L123:
 947:../Dave/Generated/src/RTOS001/SRC/rt_CMSIS.c ****   } else {
 948:../Dave/Generated/src/RTOS001/SRC/rt_CMSIS.c ****     os_timer_head = pt->next;
 1638              		.loc 1 948 0
 1639 002a 0268     		ldr	r2, [r0, #0]
 1640 002c 40F20003 		movw	r3, #:lower16:os_timer_head
 1641 0030 C0F20003 		movt	r3, #:upper16:os_timer_head
 1642 0034 1A60     		str	r2, [r3, #0]
 1643              	.L127:
 949:../Dave/Generated/src/RTOS001/SRC/rt_CMSIS.c ****   }
 950:../Dave/Generated/src/RTOS001/SRC/rt_CMSIS.c ****   if (pt->next != NULL) {
 1644              		.loc 1 950 0
 1645 0036 0368     		ldr	r3, [r0, #0]
 1646 0038 4BB1     		cbz	r3, .L130
 951:../Dave/Generated/src/RTOS001/SRC/rt_CMSIS.c ****     pt->next->tcnt += pt->tcnt;
 1647              		.loc 1 951 0
 1648 003a 0189     		ldrh	r1, [r0, #8]
 1649 003c 1A89     		ldrh	r2, [r3, #8]
 1650 003e 8A18     		adds	r2, r1, r2
 1651 0040 1A81     		strh	r2, [r3, #8]	@ movhi
 952:../Dave/Generated/src/RTOS001/SRC/rt_CMSIS.c ****   }
 953:../Dave/Generated/src/RTOS001/SRC/rt_CMSIS.c **** 
 954:../Dave/Generated/src/RTOS001/SRC/rt_CMSIS.c ****   return 0;
 1652              		.loc 1 954 0
 1653 0042 4FF00000 		mov	r0, #0
 1654 0046 7047     		bx	lr
 1655              	.L129:
 944:../Dave/Generated/src/RTOS001/SRC/rt_CMSIS.c ****   if (p == NULL) return -1;
 1656              		.loc 1 944 0
 1657 0048 4FF0FF30 		mov	r0, #-1
 1658 004c 7047     		bx	lr
 1659              	.L130:
 1660              		.loc 1 954 0
 1661 004e 4FF00000 		mov	r0, #0
 1662 0052 7047     		bx	lr
 1663              	.L125:
 945:../Dave/Generated/src/RTOS001/SRC/rt_CMSIS.c ****   if (prev != NULL) {
 1664              		.loc 1 945 0
 1665 0054 002A     		cmp	r2, #0
 1666 0056 E5D1     		bne	.L128
 1667 0058 E7E7     		b	.L123
 1668              		.cfi_endproc
 1669              	.LFE141:
 1671 005a 00BF     		.section	.text.svcTimerCreate,"ax",%progbits
 1672              		.align	2
 1673              		.global	svcTimerCreate
 1674              		.thumb
 1675              		.thumb_func
 1677              	svcTimerCreate:
 1678              	.LFB147:
 955:../Dave/Generated/src/RTOS001/SRC/rt_CMSIS.c **** }
 956:../Dave/Generated/src/RTOS001/SRC/rt_CMSIS.c **** 
 957:../Dave/Generated/src/RTOS001/SRC/rt_CMSIS.c **** 
 958:../Dave/Generated/src/RTOS001/SRC/rt_CMSIS.c **** // Timer Service Calls declarations
 959:../Dave/Generated/src/RTOS001/SRC/rt_CMSIS.c **** SVC_3_1(svcTimerCreate,           osTimerId,  const osTimerDef_t *, os_timer_type, void *, RET_poin
 960:../Dave/Generated/src/RTOS001/SRC/rt_CMSIS.c **** SVC_2_1(svcTimerStart,            osStatus,         osTimerId,      uint32_t,              RET_osSt
 961:../Dave/Generated/src/RTOS001/SRC/rt_CMSIS.c **** SVC_1_1(svcTimerStop,             osStatus,         osTimerId,                             RET_osSt
 962:../Dave/Generated/src/RTOS001/SRC/rt_CMSIS.c **** SVC_1_1(svcTimerDelete,           osStatus,         osTimerId,                             RET_osSt
 963:../Dave/Generated/src/RTOS001/SRC/rt_CMSIS.c **** SVC_1_2(svcTimerCall,   os_InRegs osCallback,       osTimerId,                             RET_osCa
 964:../Dave/Generated/src/RTOS001/SRC/rt_CMSIS.c **** 
 965:../Dave/Generated/src/RTOS001/SRC/rt_CMSIS.c **** // Timer Management Service Calls
 966:../Dave/Generated/src/RTOS001/SRC/rt_CMSIS.c **** 
 967:../Dave/Generated/src/RTOS001/SRC/rt_CMSIS.c **** /// Create timer
 968:../Dave/Generated/src/RTOS001/SRC/rt_CMSIS.c **** osTimerId svcTimerCreate (const osTimerDef_t *timer_def, os_timer_type type, void *argument) {
 1679              		.loc 1 968 0
 1680              		.cfi_startproc
 1681              		@ args = 0, pretend = 0, frame = 0
 1682              		@ frame_needed = 0, uses_anonymous_args = 0
 1683              		@ link register save eliminated.
 1684 0000 10B4     		push	{r4}
 1685              	.LCFI24:
 1686              		.cfi_def_cfa_offset 4
 1687              		.cfi_offset 4, -4
 969:../Dave/Generated/src/RTOS001/SRC/rt_CMSIS.c ****   os_timer_cb *pt;
 970:../Dave/Generated/src/RTOS001/SRC/rt_CMSIS.c **** 
 971:../Dave/Generated/src/RTOS001/SRC/rt_CMSIS.c ****   if ((timer_def == NULL) || (timer_def->ptimer == NULL)) {
 1688              		.loc 1 971 0
 1689 0002 0346     		mov	r3, r0
 1690 0004 A8B1     		cbz	r0, .L135
 1691              		.loc 1 971 0 is_stmt 0 discriminator 1
 1692 0006 0068     		ldr	r0, [r0, #0]
 1693 0008 B0B1     		cbz	r0, .L136
 972:../Dave/Generated/src/RTOS001/SRC/rt_CMSIS.c ****     sysThreadError(osErrorParameter);
 973:../Dave/Generated/src/RTOS001/SRC/rt_CMSIS.c ****     return NULL;
 974:../Dave/Generated/src/RTOS001/SRC/rt_CMSIS.c ****   }
 975:../Dave/Generated/src/RTOS001/SRC/rt_CMSIS.c **** 
 976:../Dave/Generated/src/RTOS001/SRC/rt_CMSIS.c ****   pt = timer_def->timer;
 1694              		.loc 1 976 0 is_stmt 1
 1695 000a 5868     		ldr	r0, [r3, #4]
 977:../Dave/Generated/src/RTOS001/SRC/rt_CMSIS.c ****   if (pt == NULL) {
 1696              		.loc 1 977 0
 1697 000c F8B1     		cbz	r0, .L134
 978:../Dave/Generated/src/RTOS001/SRC/rt_CMSIS.c ****     sysThreadError(osErrorParameter);
 979:../Dave/Generated/src/RTOS001/SRC/rt_CMSIS.c ****     return NULL;
 980:../Dave/Generated/src/RTOS001/SRC/rt_CMSIS.c ****   }
 981:../Dave/Generated/src/RTOS001/SRC/rt_CMSIS.c **** 
 982:../Dave/Generated/src/RTOS001/SRC/rt_CMSIS.c ****   if ((type != osTimerOnce) && (type != osTimerPeriodic)) {
 1698              		.loc 1 982 0
 1699 000e 0129     		cmp	r1, #1
 1700 0010 15D8     		bhi	.L137
 983:../Dave/Generated/src/RTOS001/SRC/rt_CMSIS.c ****     sysThreadError(osErrorValue);
 984:../Dave/Generated/src/RTOS001/SRC/rt_CMSIS.c ****     return NULL;
 985:../Dave/Generated/src/RTOS001/SRC/rt_CMSIS.c ****   }
 986:../Dave/Generated/src/RTOS001/SRC/rt_CMSIS.c **** 
 987:../Dave/Generated/src/RTOS001/SRC/rt_CMSIS.c ****   if (osThreadId_osTimerThread == NULL) {
 1701              		.loc 1 987 0
 1702 0012 40F20004 		movw	r4, #:lower16:osThreadId_osTimerThread
 1703 0016 C0F20004 		movt	r4, #:upper16:osThreadId_osTimerThread
 1704 001a 2468     		ldr	r4, [r4, #0]
 1705 001c 94B1     		cbz	r4, .L138
 988:../Dave/Generated/src/RTOS001/SRC/rt_CMSIS.c ****     sysThreadError(osErrorResource);
 989:../Dave/Generated/src/RTOS001/SRC/rt_CMSIS.c ****     return NULL;
 990:../Dave/Generated/src/RTOS001/SRC/rt_CMSIS.c ****   }
 991:../Dave/Generated/src/RTOS001/SRC/rt_CMSIS.c **** 
 992:../Dave/Generated/src/RTOS001/SRC/rt_CMSIS.c ****   if (pt->state != osTimerInvalid){
 1706              		.loc 1 992 0
 1707 001e 0479     		ldrb	r4, [r0, #4]	@ zero_extendqisi2
 1708 0020 9CB9     		cbnz	r4, .L139
 993:../Dave/Generated/src/RTOS001/SRC/rt_CMSIS.c ****     sysThreadError(osErrorResource);
 994:../Dave/Generated/src/RTOS001/SRC/rt_CMSIS.c ****     return NULL;
 995:../Dave/Generated/src/RTOS001/SRC/rt_CMSIS.c ****   }
 996:../Dave/Generated/src/RTOS001/SRC/rt_CMSIS.c **** 
 997:../Dave/Generated/src/RTOS001/SRC/rt_CMSIS.c ****   pt->next  = NULL;
 1709              		.loc 1 997 0
 1710 0022 0460     		str	r4, [r0, #0]
 998:../Dave/Generated/src/RTOS001/SRC/rt_CMSIS.c ****   pt->state = osTimerStopped;
 1711              		.loc 1 998 0
 1712 0024 4FF00104 		mov	r4, #1
 1713 0028 0471     		strb	r4, [r0, #4]
 999:../Dave/Generated/src/RTOS001/SRC/rt_CMSIS.c ****   pt->type  =  (uint8_t)type;
 1714              		.loc 1 999 0
 1715 002a 4171     		strb	r1, [r0, #5]
1000:../Dave/Generated/src/RTOS001/SRC/rt_CMSIS.c ****   pt->arg   = argument;
 1716              		.loc 1 1000 0
 1717 002c C260     		str	r2, [r0, #12]
1001:../Dave/Generated/src/RTOS001/SRC/rt_CMSIS.c ****   pt->timer = timer_def;
 1718              		.loc 1 1001 0
 1719 002e 0361     		str	r3, [r0, #16]
1002:../Dave/Generated/src/RTOS001/SRC/rt_CMSIS.c **** 
1003:../Dave/Generated/src/RTOS001/SRC/rt_CMSIS.c ****   return (osTimerId)pt;
 1720              		.loc 1 1003 0
 1721 0030 0DE0     		b	.L134
 1722              	.L135:
 973:../Dave/Generated/src/RTOS001/SRC/rt_CMSIS.c ****     return NULL;
 1723              		.loc 1 973 0
 1724 0032 4FF00000 		mov	r0, #0
 1725 0036 0AE0     		b	.L134
 1726              	.L136:
 1727 0038 4FF00000 		mov	r0, #0
 1728 003c 07E0     		b	.L134
 1729              	.L137:
 984:../Dave/Generated/src/RTOS001/SRC/rt_CMSIS.c ****     return NULL;
 1730              		.loc 1 984 0
 1731 003e 4FF00000 		mov	r0, #0
 1732 0042 04E0     		b	.L134
 1733              	.L138:
 989:../Dave/Generated/src/RTOS001/SRC/rt_CMSIS.c ****     return NULL;
 1734              		.loc 1 989 0
 1735 0044 4FF00000 		mov	r0, #0
 1736 0048 01E0     		b	.L134
 1737              	.L139:
 994:../Dave/Generated/src/RTOS001/SRC/rt_CMSIS.c ****     return NULL;
 1738              		.loc 1 994 0
 1739 004a 4FF00000 		mov	r0, #0
 1740              	.L134:
1004:../Dave/Generated/src/RTOS001/SRC/rt_CMSIS.c **** }
 1741              		.loc 1 1004 0
 1742 004e 10BC     		pop	{r4}
 1743 0050 7047     		bx	lr
 1744              		.cfi_endproc
 1745              	.LFE147:
 1747 0052 00BF     		.section	.text.svcTimerStart,"ax",%progbits
 1748              		.align	2
 1749              		.global	svcTimerStart
 1750              		.thumb
 1751              		.thumb_func
 1753              	svcTimerStart:
 1754              	.LFB148:
1005:../Dave/Generated/src/RTOS001/SRC/rt_CMSIS.c **** 
1006:../Dave/Generated/src/RTOS001/SRC/rt_CMSIS.c **** /// Start or restart timer
1007:../Dave/Generated/src/RTOS001/SRC/rt_CMSIS.c **** osStatus svcTimerStart (osTimerId timer_id, uint32_t millisec) {
 1755              		.loc 1 1007 0
 1756              		.cfi_startproc
 1757              		@ args = 0, pretend = 0, frame = 0
 1758              		@ frame_needed = 0, uses_anonymous_args = 0
 1759 0000 38B5     		push	{r3, r4, r5, lr}
 1760              	.LCFI25:
 1761              		.cfi_def_cfa_offset 16
 1762              		.cfi_offset 3, -16
 1763              		.cfi_offset 4, -12
 1764              		.cfi_offset 5, -8
 1765              		.cfi_offset 14, -4
 1766 0002 0C46     		mov	r4, r1
1008:../Dave/Generated/src/RTOS001/SRC/rt_CMSIS.c ****   os_timer_cb *pt;
1009:../Dave/Generated/src/RTOS001/SRC/rt_CMSIS.c ****   uint32_t     tcnt;
1010:../Dave/Generated/src/RTOS001/SRC/rt_CMSIS.c **** 
1011:../Dave/Generated/src/RTOS001/SRC/rt_CMSIS.c ****   pt = rt_id2obj(timer_id);
 1767              		.loc 1 1011 0
 1768 0004 FFF7FEFF 		bl	rt_id2obj
1012:../Dave/Generated/src/RTOS001/SRC/rt_CMSIS.c ****   if (pt == NULL) return osErrorParameter;
 1769              		.loc 1 1012 0
 1770 0008 0546     		mov	r5, r0
 1771 000a C8B1     		cbz	r0, .L145
1013:../Dave/Generated/src/RTOS001/SRC/rt_CMSIS.c **** 
1014:../Dave/Generated/src/RTOS001/SRC/rt_CMSIS.c ****   tcnt = rt_ms2tick(millisec);
 1772              		.loc 1 1014 0
 1773 000c 2046     		mov	r0, r4
 1774 000e FFF7FEFF 		bl	rt_ms2tick
1015:../Dave/Generated/src/RTOS001/SRC/rt_CMSIS.c ****   if (tcnt == 0) return osErrorValue;
 1775              		.loc 1 1015 0
 1776 0012 0446     		mov	r4, r0
 1777 0014 B8B1     		cbz	r0, .L146
1016:../Dave/Generated/src/RTOS001/SRC/rt_CMSIS.c **** 
1017:../Dave/Generated/src/RTOS001/SRC/rt_CMSIS.c ****   switch (pt->state) {
 1778              		.loc 1 1017 0
 1779 0016 2B79     		ldrb	r3, [r5, #4]	@ zero_extendqisi2
 1780 0018 012B     		cmp	r3, #1
 1781 001a 06D0     		beq	.L142
 1782 001c 022B     		cmp	r3, #2
 1783 001e 15D1     		bne	.L149
1018:../Dave/Generated/src/RTOS001/SRC/rt_CMSIS.c ****     case osTimerRunning:
1019:../Dave/Generated/src/RTOS001/SRC/rt_CMSIS.c ****       if (rt_timer_remove(pt) != 0) {
 1784              		.loc 1 1019 0
 1785 0020 2846     		mov	r0, r5
 1786 0022 FFF7FEFF 		bl	rt_timer_remove
 1787 0026 A0B9     		cbnz	r0, .L148
 1788 0028 03E0     		b	.L144
 1789              	.L142:
1020:../Dave/Generated/src/RTOS001/SRC/rt_CMSIS.c ****         return osErrorResource;
1021:../Dave/Generated/src/RTOS001/SRC/rt_CMSIS.c ****       }
1022:../Dave/Generated/src/RTOS001/SRC/rt_CMSIS.c ****       break;
1023:../Dave/Generated/src/RTOS001/SRC/rt_CMSIS.c ****     case osTimerStopped:
1024:../Dave/Generated/src/RTOS001/SRC/rt_CMSIS.c ****       pt->state = osTimerRunning;
 1790              		.loc 1 1024 0
 1791 002a 4FF00203 		mov	r3, #2
 1792 002e 2B71     		strb	r3, [r5, #4]
1025:../Dave/Generated/src/RTOS001/SRC/rt_CMSIS.c ****       pt->icnt  = (uint16_t)tcnt;
 1793              		.loc 1 1025 0
 1794 0030 6881     		strh	r0, [r5, #10]	@ movhi
 1795              	.L144:
1026:../Dave/Generated/src/RTOS001/SRC/rt_CMSIS.c ****       break;
1027:../Dave/Generated/src/RTOS001/SRC/rt_CMSIS.c ****     default:
1028:../Dave/Generated/src/RTOS001/SRC/rt_CMSIS.c ****       return osErrorResource;
1029:../Dave/Generated/src/RTOS001/SRC/rt_CMSIS.c ****   }
1030:../Dave/Generated/src/RTOS001/SRC/rt_CMSIS.c ****   
1031:../Dave/Generated/src/RTOS001/SRC/rt_CMSIS.c ****   rt_timer_insert(pt, tcnt);
 1796              		.loc 1 1031 0
 1797 0032 2846     		mov	r0, r5
 1798 0034 2146     		mov	r1, r4
 1799 0036 FFF7FEFF 		bl	rt_timer_insert
1032:../Dave/Generated/src/RTOS001/SRC/rt_CMSIS.c **** 
1033:../Dave/Generated/src/RTOS001/SRC/rt_CMSIS.c ****   return osOK;
 1800              		.loc 1 1033 0
 1801 003a 4FF00000 		mov	r0, #0
 1802 003e 38BD     		pop	{r3, r4, r5, pc}
 1803              	.L145:
1012:../Dave/Generated/src/RTOS001/SRC/rt_CMSIS.c ****   if (pt == NULL) return osErrorParameter;
 1804              		.loc 1 1012 0
 1805 0040 4FF08000 		mov	r0, #128
 1806 0044 38BD     		pop	{r3, r4, r5, pc}
 1807              	.L146:
1015:../Dave/Generated/src/RTOS001/SRC/rt_CMSIS.c ****   if (tcnt == 0) return osErrorValue;
 1808              		.loc 1 1015 0
 1809 0046 4FF08600 		mov	r0, #134
 1810 004a 38BD     		pop	{r3, r4, r5, pc}
 1811              	.L149:
1028:../Dave/Generated/src/RTOS001/SRC/rt_CMSIS.c ****       return osErrorResource;
 1812              		.loc 1 1028 0
 1813 004c 4FF08100 		mov	r0, #129
 1814 0050 38BD     		pop	{r3, r4, r5, pc}
 1815              	.L148:
1020:../Dave/Generated/src/RTOS001/SRC/rt_CMSIS.c ****         return osErrorResource;
 1816              		.loc 1 1020 0
 1817 0052 4FF08100 		mov	r0, #129
1034:../Dave/Generated/src/RTOS001/SRC/rt_CMSIS.c **** }
 1818              		.loc 1 1034 0
 1819 0056 38BD     		pop	{r3, r4, r5, pc}
 1820              		.cfi_endproc
 1821              	.LFE148:
 1823              		.section	.text.svcTimerStop,"ax",%progbits
 1824              		.align	2
 1825              		.global	svcTimerStop
 1826              		.thumb
 1827              		.thumb_func
 1829              	svcTimerStop:
 1830              	.LFB149:
1035:../Dave/Generated/src/RTOS001/SRC/rt_CMSIS.c **** 
1036:../Dave/Generated/src/RTOS001/SRC/rt_CMSIS.c **** /// Stop timer
1037:../Dave/Generated/src/RTOS001/SRC/rt_CMSIS.c **** osStatus svcTimerStop (osTimerId timer_id) {
 1831              		.loc 1 1037 0
 1832              		.cfi_startproc
 1833              		@ args = 0, pretend = 0, frame = 0
 1834              		@ frame_needed = 0, uses_anonymous_args = 0
 1835 0000 08B5     		push	{r3, lr}
 1836              	.LCFI26:
 1837              		.cfi_def_cfa_offset 8
 1838              		.cfi_offset 3, -8
 1839              		.cfi_offset 14, -4
1038:../Dave/Generated/src/RTOS001/SRC/rt_CMSIS.c ****   os_timer_cb *pt;
1039:../Dave/Generated/src/RTOS001/SRC/rt_CMSIS.c **** 
1040:../Dave/Generated/src/RTOS001/SRC/rt_CMSIS.c ****   pt = rt_id2obj(timer_id);
 1840              		.loc 1 1040 0
 1841 0002 FFF7FEFF 		bl	rt_id2obj
1041:../Dave/Generated/src/RTOS001/SRC/rt_CMSIS.c ****   if (pt == NULL) return osErrorParameter;
 1842              		.loc 1 1041 0
 1843 0006 60B1     		cbz	r0, .L152
1042:../Dave/Generated/src/RTOS001/SRC/rt_CMSIS.c **** 
1043:../Dave/Generated/src/RTOS001/SRC/rt_CMSIS.c ****   if (pt->state != osTimerRunning) return osErrorResource;
 1844              		.loc 1 1043 0
 1845 0008 0279     		ldrb	r2, [r0, #4]	@ zero_extendqisi2
 1846 000a 022A     		cmp	r2, #2
 1847 000c 0CD1     		bne	.L153
1044:../Dave/Generated/src/RTOS001/SRC/rt_CMSIS.c **** 
1045:../Dave/Generated/src/RTOS001/SRC/rt_CMSIS.c ****   pt->state = osTimerStopped;
 1848              		.loc 1 1045 0
 1849 000e 4FF00102 		mov	r2, #1
 1850 0012 0271     		strb	r2, [r0, #4]
1046:../Dave/Generated/src/RTOS001/SRC/rt_CMSIS.c **** 
1047:../Dave/Generated/src/RTOS001/SRC/rt_CMSIS.c ****   if (rt_timer_remove(pt) != 0) {
 1851              		.loc 1 1047 0
 1852 0014 FFF7FEFF 		bl	rt_timer_remove
1048:../Dave/Generated/src/RTOS001/SRC/rt_CMSIS.c ****     return osErrorResource;
 1853              		.loc 1 1048 0
 1854 0018 0028     		cmp	r0, #0
 1855 001a 14BF     		ite	ne
 1856 001c 8120     		movne	r0, #129
 1857 001e 0020     		moveq	r0, #0
 1858 0020 08BD     		pop	{r3, pc}
 1859              	.L152:
1041:../Dave/Generated/src/RTOS001/SRC/rt_CMSIS.c ****   if (pt == NULL) return osErrorParameter;
 1860              		.loc 1 1041 0
 1861 0022 4FF08000 		mov	r0, #128
 1862 0026 08BD     		pop	{r3, pc}
 1863              	.L153:
1043:../Dave/Generated/src/RTOS001/SRC/rt_CMSIS.c ****   if (pt->state != osTimerRunning) return osErrorResource;
 1864              		.loc 1 1043 0
 1865 0028 4FF08100 		mov	r0, #129
1049:../Dave/Generated/src/RTOS001/SRC/rt_CMSIS.c ****   }
1050:../Dave/Generated/src/RTOS001/SRC/rt_CMSIS.c **** 
1051:../Dave/Generated/src/RTOS001/SRC/rt_CMSIS.c ****   return osOK;
1052:../Dave/Generated/src/RTOS001/SRC/rt_CMSIS.c **** }
 1866              		.loc 1 1052 0
 1867 002c 08BD     		pop	{r3, pc}
 1868              		.cfi_endproc
 1869              	.LFE149:
 1871 002e 00BF     		.section	.text.svcTimerDelete,"ax",%progbits
 1872              		.align	2
 1873              		.global	svcTimerDelete
 1874              		.thumb
