   1              		.syntax unified
   2              		.cpu cortex-m4
   3              		.eabi_attribute 27, 3
   4              		.fpu fpv4-sp-d16
   5              		.eabi_attribute 20, 1
   6              		.eabi_attribute 21, 1
   7              		.eabi_attribute 23, 3
   8              		.eabi_attribute 24, 1
   9              		.eabi_attribute 25, 1
  10              		.eabi_attribute 26, 1
  11              		.eabi_attribute 30, 6
  12              		.eabi_attribute 34, 1
  13              		.eabi_attribute 18, 4
  14              		.thumb
  15              		.file	"rt_Robin.c"
  16              		.text
  17              	.Ltext0:
  18              		.cfi_sections	.debug_frame
  19              		.comm	os_robin,8,4
  20              		.section	.text.rt_init_robin,"ax",%progbits
  21              		.align	2
  22              		.weak	rt_init_robin
  23              		.thumb
  24              		.thumb_func
  26              	rt_init_robin:
  27              	.LFB8:
  28              		.file 1 "../Dave/Generated/src/RTOS001/SRC/rt_Robin.c"
   1:../Dave/Generated/src/RTOS001/SRC/rt_Robin.c **** /*----------------------------------------------------------------------------
   2:../Dave/Generated/src/RTOS001/SRC/rt_Robin.c ****  *      RL-ARM - RTX
   3:../Dave/Generated/src/RTOS001/SRC/rt_Robin.c ****  *----------------------------------------------------------------------------
   4:../Dave/Generated/src/RTOS001/SRC/rt_Robin.c ****  *      Name:    RT_ROBIN.C
   5:../Dave/Generated/src/RTOS001/SRC/rt_Robin.c ****  *      Purpose: Round Robin Task switching
   6:../Dave/Generated/src/RTOS001/SRC/rt_Robin.c ****  *      Rev.:    V4.70
   7:../Dave/Generated/src/RTOS001/SRC/rt_Robin.c ****  *----------------------------------------------------------------------------
   8:../Dave/Generated/src/RTOS001/SRC/rt_Robin.c ****  *
   9:../Dave/Generated/src/RTOS001/SRC/rt_Robin.c ****  * Copyright (c) 1999-2009 KEIL, 2009-2013 ARM Germany GmbH
  10:../Dave/Generated/src/RTOS001/SRC/rt_Robin.c ****  * All rights reserved.
  11:../Dave/Generated/src/RTOS001/SRC/rt_Robin.c ****  * Redistribution and use in source and binary forms, with or without
  12:../Dave/Generated/src/RTOS001/SRC/rt_Robin.c ****  * modification, are permitted provided that the following conditions are met:
  13:../Dave/Generated/src/RTOS001/SRC/rt_Robin.c ****  *  - Redistributions of source code must retain the above copyright
  14:../Dave/Generated/src/RTOS001/SRC/rt_Robin.c ****  *    notice, this list of conditions and the following disclaimer.
  15:../Dave/Generated/src/RTOS001/SRC/rt_Robin.c ****  *  - Redistributions in binary form must reproduce the above copyright
  16:../Dave/Generated/src/RTOS001/SRC/rt_Robin.c ****  *    notice, this list of conditions and the following disclaimer in the
  17:../Dave/Generated/src/RTOS001/SRC/rt_Robin.c ****  *    documentation and/or other materials provided with the distribution.
  18:../Dave/Generated/src/RTOS001/SRC/rt_Robin.c ****  *  - Neither the name of ARM  nor the names of its contributors may be used 
  19:../Dave/Generated/src/RTOS001/SRC/rt_Robin.c ****  *    to endorse or promote products derived from this software without 
  20:../Dave/Generated/src/RTOS001/SRC/rt_Robin.c ****  *    specific prior written permission.
  21:../Dave/Generated/src/RTOS001/SRC/rt_Robin.c ****  *
  22:../Dave/Generated/src/RTOS001/SRC/rt_Robin.c ****  * THIS SOFTWARE IS PROVIDED BY THE COPYRIGHT HOLDERS AND CONTRIBUTORS "AS IS" 
  23:../Dave/Generated/src/RTOS001/SRC/rt_Robin.c ****  * AND ANY EXPRESS OR IMPLIED WARRANTIES, INCLUDING, BUT NOT LIMITED TO, THE 
  24:../Dave/Generated/src/RTOS001/SRC/rt_Robin.c ****  * IMPLIED WARRANTIES OF MERCHANTABILITY AND FITNESS FOR A PARTICULAR PURPOSE
  25:../Dave/Generated/src/RTOS001/SRC/rt_Robin.c ****  * ARE DISCLAIMED. IN NO EVENT SHALL COPYRIGHT HOLDERS AND CONTRIBUTORS BE
  26:../Dave/Generated/src/RTOS001/SRC/rt_Robin.c ****  * LIABLE FOR ANY DIRECT, INDIRECT, INCIDENTAL, SPECIAL, EXEMPLARY, OR
  27:../Dave/Generated/src/RTOS001/SRC/rt_Robin.c ****  * CONSEQUENTIAL DAMAGES (INCLUDING, BUT NOT LIMITED TO, PROCUREMENT OF 
  28:../Dave/Generated/src/RTOS001/SRC/rt_Robin.c ****  * SUBSTITUTE GOODS OR SERVICES; LOSS OF USE, DATA, OR PROFITS; OR BUSINESS 
  29:../Dave/Generated/src/RTOS001/SRC/rt_Robin.c ****  * INTERRUPTION) HOWEVER CAUSED AND ON ANY THEORY OF LIABILITY, WHETHER IN 
  30:../Dave/Generated/src/RTOS001/SRC/rt_Robin.c ****  * CONTRACT, STRICT LIABILITY, OR TORT (INCLUDING NEGLIGENCE OR OTHERWISE) 
  31:../Dave/Generated/src/RTOS001/SRC/rt_Robin.c ****  * ARISING IN ANY WAY OUT OF THE USE OF THIS SOFTWARE, EVEN IF ADVISED OF THE
  32:../Dave/Generated/src/RTOS001/SRC/rt_Robin.c ****  * POSSIBILITY OF SUCH DAMAGE.
  33:../Dave/Generated/src/RTOS001/SRC/rt_Robin.c ****  *---------------------------------------------------------------------------*/
  34:../Dave/Generated/src/RTOS001/SRC/rt_Robin.c **** 
  35:../Dave/Generated/src/RTOS001/SRC/rt_Robin.c **** #include "rt_TypeDef.h"
  36:../Dave/Generated/src/RTOS001/SRC/rt_Robin.c **** #include "RTX_Config.h"
  37:../Dave/Generated/src/RTOS001/SRC/rt_Robin.c **** #include "rt_List.h"
  38:../Dave/Generated/src/RTOS001/SRC/rt_Robin.c **** #include "rt_Task.h"
  39:../Dave/Generated/src/RTOS001/SRC/rt_Robin.c **** #include "rt_Time.h"
  40:../Dave/Generated/src/RTOS001/SRC/rt_Robin.c **** #include "rt_Robin.h"
  41:../Dave/Generated/src/RTOS001/SRC/rt_Robin.c **** #include "rt_HAL_CM.h"
  42:../Dave/Generated/src/RTOS001/SRC/rt_Robin.c **** 
  43:../Dave/Generated/src/RTOS001/SRC/rt_Robin.c **** /*----------------------------------------------------------------------------
  44:../Dave/Generated/src/RTOS001/SRC/rt_Robin.c ****  *      Global Variables
  45:../Dave/Generated/src/RTOS001/SRC/rt_Robin.c ****  *---------------------------------------------------------------------------*/
  46:../Dave/Generated/src/RTOS001/SRC/rt_Robin.c **** 
  47:../Dave/Generated/src/RTOS001/SRC/rt_Robin.c **** struct OS_ROBIN os_robin;
  48:../Dave/Generated/src/RTOS001/SRC/rt_Robin.c **** 
  49:../Dave/Generated/src/RTOS001/SRC/rt_Robin.c **** 
  50:../Dave/Generated/src/RTOS001/SRC/rt_Robin.c **** /*----------------------------------------------------------------------------
  51:../Dave/Generated/src/RTOS001/SRC/rt_Robin.c ****  *      Global Functions
  52:../Dave/Generated/src/RTOS001/SRC/rt_Robin.c ****  *---------------------------------------------------------------------------*/
  53:../Dave/Generated/src/RTOS001/SRC/rt_Robin.c **** 
  54:../Dave/Generated/src/RTOS001/SRC/rt_Robin.c **** /*--------------------------- rt_init_robin ---------------------------------*/
  55:../Dave/Generated/src/RTOS001/SRC/rt_Robin.c **** 
  56:../Dave/Generated/src/RTOS001/SRC/rt_Robin.c **** __weak void rt_init_robin (void) {
  29              		.loc 1 56 0
  30              		.cfi_startproc
  31              		@ args = 0, pretend = 0, frame = 0
  32              		@ frame_needed = 1, uses_anonymous_args = 0
  33              		@ link register save eliminated.
  34 0000 80B4     		push	{r7}
  35              	.LCFI0:
  36              		.cfi_def_cfa_offset 4
  37              		.cfi_offset 7, -4
  38 0002 00AF     		add	r7, sp, #0
  39              	.LCFI1:
  40              		.cfi_def_cfa_register 7
  57:../Dave/Generated/src/RTOS001/SRC/rt_Robin.c ****   /* Initialize Round Robin variables. */
  58:../Dave/Generated/src/RTOS001/SRC/rt_Robin.c ****   os_robin.task = NULL;
  41              		.loc 1 58 0
  42 0004 40F20003 		movw	r3, #:lower16:os_robin
  43 0008 C0F20003 		movt	r3, #:upper16:os_robin
  44 000c 4FF00002 		mov	r2, #0
  45 0010 1A60     		str	r2, [r3, #0]
  59:../Dave/Generated/src/RTOS001/SRC/rt_Robin.c ****   os_robin.tout = (U16)os_rrobin;
  46              		.loc 1 59 0
  47 0012 40F20003 		movw	r3, #:lower16:os_rrobin
  48 0016 C0F20003 		movt	r3, #:upper16:os_rrobin
  49 001a 1B68     		ldr	r3, [r3, #0]
  50 001c 9AB2     		uxth	r2, r3
  51 001e 40F20003 		movw	r3, #:lower16:os_robin
  52 0022 C0F20003 		movt	r3, #:upper16:os_robin
  53 0026 DA80     		strh	r2, [r3, #6]	@ movhi
  60:../Dave/Generated/src/RTOS001/SRC/rt_Robin.c **** }
  54              		.loc 1 60 0
  55 0028 BD46     		mov	sp, r7
  56 002a 80BC     		pop	{r7}
  57 002c 7047     		bx	lr
  58              		.cfi_endproc
  59              	.LFE8:
  61 002e 00BF     		.section	.text.rt_chk_robin,"ax",%progbits
  62              		.align	2
  63              		.weak	rt_chk_robin
  64              		.thumb
  65              		.thumb_func
  67              	rt_chk_robin:
  68              	.LFB9:
  61:../Dave/Generated/src/RTOS001/SRC/rt_Robin.c **** 
  62:../Dave/Generated/src/RTOS001/SRC/rt_Robin.c **** /*--------------------------- rt_chk_robin ----------------------------------*/
  63:../Dave/Generated/src/RTOS001/SRC/rt_Robin.c **** 
  64:../Dave/Generated/src/RTOS001/SRC/rt_Robin.c **** __weak void rt_chk_robin (void) {
  69              		.loc 1 64 0
  70              		.cfi_startproc
  71              		@ args = 0, pretend = 0, frame = 8
  72              		@ frame_needed = 1, uses_anonymous_args = 0
  73 0000 80B5     		push	{r7, lr}
  74              	.LCFI2:
  75              		.cfi_def_cfa_offset 8
  76              		.cfi_offset 7, -8
  77              		.cfi_offset 14, -4
  78 0002 82B0     		sub	sp, sp, #8
  79              	.LCFI3:
  80              		.cfi_def_cfa_offset 16
  81 0004 00AF     		add	r7, sp, #0
  82              	.LCFI4:
  83              		.cfi_def_cfa_register 7
  65:../Dave/Generated/src/RTOS001/SRC/rt_Robin.c ****   /* Check if Round Robin timeout expired and switch to the next ready task.*/
  66:../Dave/Generated/src/RTOS001/SRC/rt_Robin.c ****   P_TCB p_new;
  67:../Dave/Generated/src/RTOS001/SRC/rt_Robin.c **** 
  68:../Dave/Generated/src/RTOS001/SRC/rt_Robin.c ****   if (os_robin.task != os_rdy.p_lnk) {
  84              		.loc 1 68 0
  85 0006 40F20003 		movw	r3, #:lower16:os_robin
  86 000a C0F20003 		movt	r3, #:upper16:os_robin
  87 000e 1A68     		ldr	r2, [r3, #0]
  88 0010 40F20003 		movw	r3, #:lower16:os_rdy
  89 0014 C0F20003 		movt	r3, #:upper16:os_rdy
  90 0018 5B68     		ldr	r3, [r3, #4]
  91 001a 9A42     		cmp	r2, r3
  92 001c 1ED0     		beq	.L3
  69:../Dave/Generated/src/RTOS001/SRC/rt_Robin.c ****     /* New task was suspended, reset Round Robin timeout. */
  70:../Dave/Generated/src/RTOS001/SRC/rt_Robin.c ****     os_robin.task = os_rdy.p_lnk;
  93              		.loc 1 70 0
  94 001e 40F20003 		movw	r3, #:lower16:os_rdy
  95 0022 C0F20003 		movt	r3, #:upper16:os_rdy
  96 0026 5A68     		ldr	r2, [r3, #4]
  97 0028 40F20003 		movw	r3, #:lower16:os_robin
  98 002c C0F20003 		movt	r3, #:upper16:os_robin
  99 0030 1A60     		str	r2, [r3, #0]
  71:../Dave/Generated/src/RTOS001/SRC/rt_Robin.c ****     os_robin.time = (U16)os_time + os_robin.tout - 1;
 100              		.loc 1 71 0
 101 0032 40F20003 		movw	r3, #:lower16:os_time
 102 0036 C0F20003 		movt	r3, #:upper16:os_time
 103 003a 1B68     		ldr	r3, [r3, #0]
 104 003c 9AB2     		uxth	r2, r3
 105 003e 40F20003 		movw	r3, #:lower16:os_robin
 106 0042 C0F20003 		movt	r3, #:upper16:os_robin
 107 0046 DB88     		ldrh	r3, [r3, #6]
 108 0048 D318     		adds	r3, r2, r3
 109 004a 9BB2     		uxth	r3, r3
 110 004c 03F1FF33 		add	r3, r3, #-1
 111 0050 9AB2     		uxth	r2, r3
 112 0052 40F20003 		movw	r3, #:lower16:os_robin
 113 0056 C0F20003 		movt	r3, #:upper16:os_robin
 114 005a 9A80     		strh	r2, [r3, #4]	@ movhi
 115              	.L3:
  72:../Dave/Generated/src/RTOS001/SRC/rt_Robin.c ****   }
  73:../Dave/Generated/src/RTOS001/SRC/rt_Robin.c ****   if (os_robin.time == (U16)os_time) {
 116              		.loc 1 73 0
 117 005c 40F20003 		movw	r3, #:lower16:os_robin
 118 0060 C0F20003 		movt	r3, #:upper16:os_robin
 119 0064 9A88     		ldrh	r2, [r3, #4]
 120 0066 40F20003 		movw	r3, #:lower16:os_time
 121 006a C0F20003 		movt	r3, #:upper16:os_time
 122 006e 1B68     		ldr	r3, [r3, #0]
 123 0070 9BB2     		uxth	r3, r3
 124 0072 9A42     		cmp	r2, r3
 125 0074 14D1     		bne	.L2
  74:../Dave/Generated/src/RTOS001/SRC/rt_Robin.c ****     /* Round Robin timeout has expired, swap Robin tasks. */
  75:../Dave/Generated/src/RTOS001/SRC/rt_Robin.c ****     os_robin.task = NULL;
 126              		.loc 1 75 0
 127 0076 40F20003 		movw	r3, #:lower16:os_robin
 128 007a C0F20003 		movt	r3, #:upper16:os_robin
 129 007e 4FF00002 		mov	r2, #0
 130 0082 1A60     		str	r2, [r3, #0]
  76:../Dave/Generated/src/RTOS001/SRC/rt_Robin.c ****     p_new = rt_get_first (&os_rdy);
 131              		.loc 1 76 0
 132 0084 40F20000 		movw	r0, #:lower16:os_rdy
 133 0088 C0F20000 		movt	r0, #:upper16:os_rdy
 134 008c FFF7FEFF 		bl	rt_get_first
 135 0090 7860     		str	r0, [r7, #4]
  77:../Dave/Generated/src/RTOS001/SRC/rt_Robin.c ****     rt_put_prio ((P_XCB)&os_rdy, p_new);
 136              		.loc 1 77 0
 137 0092 40F20000 		movw	r0, #:lower16:os_rdy
 138 0096 C0F20000 		movt	r0, #:upper16:os_rdy
 139 009a 7968     		ldr	r1, [r7, #4]
 140 009c FFF7FEFF 		bl	rt_put_prio
 141              	.L2:
  78:../Dave/Generated/src/RTOS001/SRC/rt_Robin.c ****   }
  79:../Dave/Generated/src/RTOS001/SRC/rt_Robin.c **** }
 142              		.loc 1 79 0
 143 00a0 07F10807 		add	r7, r7, #8
 144 00a4 BD46     		mov	sp, r7
 145 00a6 80BD     		pop	{r7, pc}
 146              		.cfi_endproc
 147              	.LFE9:
 149              		.text
 150              	.Letext0:
 151              		.file 2 "../Dave/Generated/src/RTOS001/SRC/rt_TypeDef.h"
 152              		.file 3 "../Dave/Generated/src/RTOS001/SRC/RTX_Config.h"
 153              		.file 4 "../Dave/Generated/src/RTOS001/SRC/rt_List.h"
 154              		.file 5 "../Dave/Generated/src/RTOS001/SRC/rt_Time.h"